Certificate:
    Data:
        Version: 3 (0x2)
        Serial Number: 1 (0x1)
    Signature Algorithm: sha1WithRSAEncryption
        Issuer: C=IT, O=IGI, CN=email Test CA/emailAddress=andrea.ceccanti@cnaf.infn.it
        Validity
            Not Before: Nov 19 14:06:16 2013 GMT
            Not After : Nov 17 14:06:16 2023 GMT
        Subject: C=IT, O=IGI, CN=test-email
        Subject Public Key Info:
            Public Key Algorithm: rsaEncryption
                Public-Key: (2048 bit)
                Modulus:
                    00:b9:fa:1f:0b:96:2e:a4:59:3a:a5:77:16:10:e8:
                    5c:a6:c7:f8:ea:77:45:a6:2b:0c:16:bb:e9:d6:60:
                    2c:2f:aa:65:7d:f0:8a:71:96:8a:d7:7b:d6:ba:67:
                    62:86:b3:a5:86:7f:1a:b6:2d:46:bb:b0:21:2e:cd:
                    44:59:5c:28:fd:d3:2b:88:25:55:4c:cc:e4:04:e1:
                    75:9a:2f:53:36:dd:6b:20:3c:09:6a:1b:1b:d7:6c:
                    1d:c2:33:20:73:5a:a7:4f:68:f8:e8:6f:71:1d:3f:
                    32:74:41:95:99:ca:e5:9c:c2:30:31:ab:aa:ac:3b:
                    98:3b:fe:66:be:a7:2d:91:58:ac:05:bb:a3:0f:b2:
                    76:90:19:59:38:04:bb:47:51:1c:a9:68:40:58:58:
                    21:c4:2a:99:58:1d:0e:ea:f0:6e:92:e7:3e:b3:68:
                    2e:f2:16:f7:38:f6:67:ea:99:93:c6:67:b4:70:0e:
                    52:3d:1c:f6:1d:33:44:20:d3:22:3d:01:f7:5b:d4:
                    26:40:da:f1:81:64:c1:f8:9f:a2:ac:8c:75:98:bd:
                    e2:33:e6:dd:3e:c6:5b:a2:27:4d:94:e8:18:94:f6:
                    08:62:20:73:dc:0d:ef:dc:85:f7:77:ea:83:79:0a:
                    f7:73:6e:7c:d5:c7:5c:f9:4d:4e:9a:23:2b:68:f2:
                    3a:a3
                Exponent: 65537 (0x10001)
        X509v3 extensions:
            X509v3 Basic Constraints: critical
                CA:FALSE
            X509v3 Subject Key Identifier: 
                A7:B3:7E:76:43:16:0B:6C:47:47:09:A3:5C:72:8A:C8:BE:39:D8:B7
            X509v3 Key Usage: critical
                Digital Signature, Non Repudiation, Key Encipherment
            X509v3 Extended Key Usage: 
                TLS Web Server Authentication, TLS Web Client Authentication, Microsoft Server Gated Crypto, Netscape Server Gated Crypto, E-mail Protection
            X509v3 Authority Key Identifier: 
                keyid:16:0A:06:D7:43:A1:19:7E:95:50:DD:AD:16:F7:E7:30:70:CC:19:CC

            X509v3 Subject Alternative Name: 
                email:andrea.ceccanti@cnaf.infn.it
    Signature Algorithm: sha1WithRSAEncryption
         6f:3f:85:6e:5b:a4:62:cc:73:81:cd:65:6c:34:cb:df:08:ca:
         8b:7c:07:a8:53:fd:6c:4b:96:d2:00:75:cd:0b:26:67:54:ad:
         6b:d9:fc:e3:38:75:54:e5:6d:2a:8b:a9:be:b9:00:10:c7:52:
         eb:1b:3a:a4:60:b3:18:c4:93:3f:ed:d3:1b:05:4b:40:7e:83:
         91:0a:59:ac:73:8f:9c:95:07:da:6f:3c:69:bf:56:ed:b9:17:
         84:fd:cc:b7:a8:10:d7:b5:a6:bd:69:c1:35:bd:9a:87:0b:34:
         4c:aa:07:eb:eb:13:f1:ca:d6:f7:76:83:de:67:a8:ee:c1:d6:
         20:eb:87:5c:8d:d9:68:5e:67:b5:47:c4:63:bc:e9:d0:d1:17:
         43:22:a7:00:07:f2:47:81:2c:a5:8f:d5:63:09:76:c1:6a:65:
         cb:42:27:db:09:d0:7a:40:84:99:53:4d:b9:e7:11:71:03:66:
         f2:52:65:79:92:3d:9c:ae:30:07:dd:63:85:7f:df:a6:bb:7c:
         d3:f2:0f:57:40:2f:65:34:7b:c4:0e:35:42:76:9e:db:a4:7b:
         12:b6:a1:36:32:35:19:60:da:6b:68:eb:39:68:68:b6:e4:71:
         31:4b:54:18:8c:21:e4:8c:6c:fb:58:3a:1e:0a:40:d0:0a:6b:
         73:06:07:0a
-----BEGIN CERTIFICATE-----
MIID1jCCAr6gAwIBAgIBATANBgkqhkiG9w0BAQUFADBgMQswCQYDVQQGEwJJVDEM
MAoGA1UECgwDSUdJMRYwFAYDVQQDDA1lbWFpbCBUZXN0IENBMSswKQYJKoZIhvcN
AQkBFhxhbmRyZWEuY2VjY2FudGlAY25hZi5pbmZuLml0MB4XDTEzMTExOTE0MDYx
NloXDTIzMTExNzE0MDYxNlowMDELMAkGA1UEBhMCSVQxDDAKBgNVBAoTA0lHSTET
MBEGA1UEAxMKdGVzdC1lbWFpbDCCASIwDQYJKoZIhvcNAQEBBQADggEPADCCAQoC
ggEBALn6HwuWLqRZOqV3FhDoXKbH+Op3RaYrDBa76dZgLC+qZX3winGWitd71rpn
YoazpYZ/GrYtRruwIS7NRFlcKP3TK4glVUzM5AThdZovUzbdayA8CWobG9dsHcIz
IHNap09o+OhvcR0/MnRBlZnK5ZzCMDGrqqw7mDv+Zr6nLZFYrAW7ow+ydpAZWTgE
u0dRHKloQFhYIcQqmVgdDurwbpLnPrNoLvIW9zj2Z+qZk8ZntHAOUj0c9h0zRCDT
Ij0B91vUJkDa8YFkwfifoqyMdZi94jPm3T7GW6InTZToGJT2CGIgc9wN79yF93fq
g3kK93NufNXHXPlNTpojK2jyOqMCAwEAAaOByjCBxzAMBgNVHRMBAf8EAjAAMB0G
A1UdDgQWBBSns352QxYLbEdHCaNccorIvjnYtzAOBgNVHQ8BAf8EBAMCBeAwPgYD
VR0lBDcwNQYIKwYBBQUHAwEGCCsGAQUFBwMCBgorBgEEAYI3CgMDBglghkgBhvhC
BAEGCCsGAQUFBwMEMB8GA1UdIwQYMBaAFBYKBtdDoRl+lVDdrRb35zBwzBnMMCcG
A1UdEQQgMB6BHGFuZHJlYS5jZWNjYW50aUBjbmFmLmluZm4uaXQwDQYJKoZIhvcN
AQEFBQADggEBAG8/hW5bpGLMc4HNZWw0y98Iyot8B6hT/WxLltIAdc0LJmdUrWvZ
/OM4dVTlbSqLqb65ABDHUusbOqRgsxjEkz/t0xsFS0B+g5EKWaxzj5yVB9pvPGm/
Vu25F4T9zLeoENe1pr1pwTW9mocLNEyqB+vrE/HK1vd2g95nqO7B1iDrh1yN2Whe
Z7VHxGO86dDRF0MipwAH8keBLKWP1WMJdsFqZctCJ9sJ0HpAhJlTTbnnEXEDZvJS
ZXmSPZyuMAfdY4V/36a7fNPyD1dAL2U0e8QONUJ2ntukexK2oTYyNRlg2mto6zlo
aLbkcTFLVBiMIeSMbPtYOh4KQNAKa3MGBwo=
-----END CERTIFICATE-----
