Certificate:
    Data:
        Version: 3 (0x2)
        Serial Number: 1 (0x1)
        Signature Algorithm: sha512WithRSAEncryption
        Issuer: C=IT, O=IGI, CN=Test CA 2
        Validity
            Not Before: Jan 27 13:42:04 2015 GMT
            Not After : Jan 24 13:42:04 2025 GMT
        Subject: C=IT, O=IGI, CN=test0
        Subject Public Key Info:
            Public Key Algorithm: rsaEncryption
            RSA Public Key: (2048 bit)
                Modulus (2048 bit):
                    00:c1:9c:9a:0b:eb:02:f1:ee:fe:58:ef:94:9a:02:
                    a9:52:f2:bf:18:3a:fd:77:5b:36:9a:79:b5:45:1b:
                    cd:31:3d:b5:82:51:5c:88:54:0e:58:a5:2b:11:96:
                    4a:6e:63:a3:c4:2d:10:09:68:bd:22:24:2b:eb:56:
                    25:11:cc:12:73:93:17:28:0a:91:aa:29:b1:7b:dd:
                    2e:33:ed:49:22:34:27:9a:25:a8:1a:8e:c5:95:69:
                    2f:dd:86:3f:77:42:1a:ac:c8:b4:81:4f:01:da:94:
                    1e:54:57:a4:ad:fd:ab:34:11:d9:04:6b:4b:a7:57:
                    77:e1:dd:d9:4c:07:8c:90:a1:57:07:89:01:b1:22:
                    bb:11:8d:ed:c2:30:a6:3c:b0:49:06:6a:30:b3:5d:
                    47:18:2f:32:5c:91:aa:b5:5c:e7:46:0f:88:da:05:
                    ac:13:c2:2a:81:9a:64:04:be:44:bc:72:04:80:9d:
                    02:3e:92:1a:83:35:1a:ec:35:35:31:0a:1c:6f:ab:
                    c1:64:ce:1f:c1:ea:aa:14:67:a4:d7:94:e3:1f:b5:
                    72:d6:de:71:55:83:97:51:2f:2a:9e:c5:31:72:c0:
                    6b:d2:d9:8b:f5:1c:3a:33:47:49:19:d9:30:0d:5e:
                    4a:1c:b0:63:6b:be:49:b3:67:1b:ac:e6:b5:3c:d5:
                    a1:e7
                Exponent: 65537 (0x10001)
        X509v3 extensions:
            X509v3 Basic Constraints: critical
                CA:FALSE
            X509v3 Subject Key Identifier: 
                37:E1:3B:FB:BC:51:2A:BF:FF:47:4F:5C:54:70:D1:5B:E7:DF:38:B0
            X509v3 Key Usage: critical
                Digital Signature, Non Repudiation, Key Encipherment
            X509v3 Extended Key Usage: 
                TLS Web Server Authentication, TLS Web Client Authentication, Microsoft Server Gated Crypto, Netscape Server Gated Crypto, E-mail Protection
            X509v3 Authority Key Identifier: 
                keyid:37:03:CB:96:42:3A:14:8F:BD:5B:72:2A:EE:F0:6B:A8:6D:4F:8C:44

            X509v3 Subject Alternative Name: 
                email:andrea.ceccanti@cnaf.infn.it
    Signature Algorithm: sha512WithRSAEncryption
        bb:f5:cc:38:62:0e:c6:86:66:bf:88:6e:91:8b:74:27:02:2e:
        60:83:6d:68:34:74:7f:c0:04:60:30:87:1d:21:a6:2e:ee:8d:
        32:65:b7:1d:f8:42:96:9e:9c:0b:41:fc:57:b9:d0:73:57:13:
        04:1d:d0:8d:e9:93:4a:63:e3:dc:8c:a3:75:66:a0:73:fe:e6:
        06:0c:fb:7a:73:7f:e0:d1:05:8c:c9:7b:ad:7d:54:4b:e3:23:
        63:0b:0f:ff:f3:36:a3:7e:b2:7e:e9:e3:dd:f7:2d:b4:c8:95:
        4d:55:91:05:9f:f8:56:2e:a0:c7:c3:1f:7e:07:6d:6a:0c:94:
        44:e1:6f:dd:d5:b4:76:8a:6b:29:57:50:09:02:1f:fa:9a:e6:
        ce:ad:c9:1e:28:b9:db:51:a0:94:dc:41:f1:a0:2f:b9:78:af:
        70:93:df:c0:d4:c1:87:ba:e4:93:0f:37:2a:f6:16:14:6b:df:
        1e:d9:02:3c:6c:79:5d:6e:37:1a:7f:77:e5:b6:9d:89:63:45:
        b0:28:73:c4:32:6d:0e:11:86:60:87:47:01:5d:38:5d:c0:01:
        36:30:3b:07:35:e6:2d:02:1c:f1:ee:9c:d6:5d:e9:4d:8c:25:
        b0:e2:d6:0b:b8:e0:a7:b8:fd:94:3a:bd:44:50:5c:58:33:1b:
        fc:82:48:2a
-----BEGIN CERTIFICATE-----
MIIDoDCCAoigAwIBAgIBATANBgkqhkiG9w0BAQ0FADAvMQswCQYDVQQGEwJJVDEM
MAoGA1UECgwDSUdJMRIwEAYDVQQDDAlUZXN0IENBIDIwHhcNMTUwMTI3MTM0MjA0
WhcNMjUwMTI0MTM0MjA0WjArMQswCQYDVQQGEwJJVDEMMAoGA1UECgwDSUdJMQ4w
DAYDVQQDDAV0ZXN0MDCCASIwDQYJKoZIhvcNAQEBBQADggEPADCCAQoCggEBAMGc
mgvrAvHu/ljvlJoCqVLyvxg6/XdbNpp5tUUbzTE9tYJRXIhUDlilKxGWSm5jo8Qt
EAlovSIkK+tWJRHMEnOTFygKkaopsXvdLjPtSSI0J5olqBqOxZVpL92GP3dCGqzI
tIFPAdqUHlRXpK39qzQR2QRrS6dXd+Hd2UwHjJChVweJAbEiuxGN7cIwpjywSQZq
MLNdRxgvMlyRqrVc50YPiNoFrBPCKoGaZAS+RLxyBICdAj6SGoM1Guw1NTEKHG+r
wWTOH8HqqhRnpNeU4x+1ctbecVWDl1EvKp7FMXLAa9LZi/UcOjNHSRnZMA1eShyw
Y2u+SbNnG6zmtTzVoecCAwEAAaOByjCBxzAMBgNVHRMBAf8EAjAAMB0GA1UdDgQW
BBQ34Tv7vFEqv/9HT1xUcNFb5984sDAOBgNVHQ8BAf8EBAMCBeAwPgYDVR0lBDcw
NQYIKwYBBQUHAwEGCCsGAQUFBwMCBgorBgEEAYI3CgMDBglghkgBhvhCBAEGCCsG
AQUFBwMEMB8GA1UdIwQYMBaAFDcDy5ZCOhSPvVtyKu7wa6htT4xEMCcGA1UdEQQg
MB6BHGFuZHJlYS5jZWNjYW50aUBjbmFmLmluZm4uaXQwDQYJKoZIhvcNAQENBQAD
ggEBALv1zDhiDsaGZr+IbpGLdCcCLmCDbWg0dH/ABGAwhx0hpi7ujTJltx34Qpae
nAtB/Fe50HNXEwQd0I3pk0pj49yMo3VmoHP+5gYM+3pzf+DRBYzJe619VEvjI2ML
D//zNqN+sn7p4933LbTIlU1VkQWf+FYuoMfDH34HbWoMlEThb93VtHaKaylXUAkC
H/qa5s6tyR4oudtRoJTcQfGgL7l4r3CT38DUwYe65JMPNyr2FhRr3x7ZAjxseV1u
Nxp/d+W2nYljRbAoc8QybQ4RhmCHRwFdOF3AATYwOwc15i0CHPHunNZd6U2MJbDi
1gu44Ke4/ZQ6vURQXFgzG/yCSCo=
-----END CERTIFICATE-----
