Certificate:
    Data:
        Version: 3 (0x2)
        Serial Number: 3 (0x3)
    Signature Algorithm: sha256WithRSAEncryption
        Issuer: C=IT, O=IGI, CN=Test CA (SHA 256)
        Validity
            Not Before: Feb  5 17:15:08 2013 GMT
            Not After : Feb  3 17:15:08 2023 GMT
        Subject: C=IT, O=IGI, OU=SHA 256, CN=service-cert
        Subject Public Key Info:
            Public Key Algorithm: rsaEncryption
                Public-Key: (2048 bit)
                Modulus:
                    00:94:fe:2b:68:9c:7c:b1:05:83:34:cd:1c:7d:be:
                    c9:43:c5:14:70:5d:f6:56:bc:f6:17:8e:9e:f8:62:
                    54:52:a1:ac:ac:62:21:f2:f7:b9:3d:30:18:63:f4:
                    ab:94:46:c0:0a:98:96:38:d2:d2:73:06:50:5d:6b:
                    8f:6e:82:0b:7d:dc:fa:53:24:40:e2:32:ef:f2:84:
                    14:e1:42:e3:9f:05:e0:5d:d7:31:45:ea:bf:d6:89:
                    22:71:ce:d8:66:c1:75:8a:d1:de:c7:fe:5a:f7:be:
                    4f:ce:e5:68:17:41:b4:0f:34:0a:38:27:43:3a:7d:
                    6a:36:1d:fb:c7:81:05:fb:59:c7:72:32:70:4a:00:
                    69:e8:72:d0:15:3b:b5:f3:91:79:63:42:00:20:e1:
                    2c:db:f2:eb:70:9b:ac:1d:5c:09:86:e8:ca:59:b4:
                    68:10:2e:82:c8:a8:4c:c2:37:62:81:ee:73:bc:bd:
                    a5:be:9a:03:64:b2:3a:24:ac:e2:d7:0a:fa:02:9b:
                    c5:66:17:b7:74:8a:b6:f1:55:0b:7f:32:fa:24:bd:
                    fc:ea:75:2e:3c:1c:16:08:0a:4f:97:05:8b:b1:55:
                    89:7f:6d:96:d4:a9:fc:e3:9e:89:15:8a:bf:01:1b:
                    e1:c8:3e:c5:6b:36:43:9a:a6:bb:fc:37:72:09:c8:
                    8a:43
                Exponent: 65537 (0x10001)
        X509v3 extensions:
            X509v3 Basic Constraints: critical
                CA:FALSE
            X509v3 Subject Key Identifier: 
                CF:6D:A1:09:41:A3:24:16:F0:03:B3:F9:57:33:71:49:9C:0D:99:7F
            X509v3 Key Usage: critical
                Digital Signature, Non Repudiation, Key Encipherment
            X509v3 Extended Key Usage: 
                TLS Web Server Authentication, TLS Web Client Authentication, Microsoft Server Gated Crypto, Netscape Server Gated Crypto, E-mail Protection
            X509v3 Authority Key Identifier: 
                keyid:1D:49:24:65:4D:89:76:B0:B0:0A:C6:D1:0A:5A:06:B0:5F:3E:E2:89

            X509v3 Subject Alternative Name: 
                email:andrea.ceccanti@cnaf.infn.it
    Signature Algorithm: sha256WithRSAEncryption
         78:6f:c2:a9:01:6d:19:46:a6:74:81:50:9f:8e:e5:e7:ac:d3:
         a5:31:7c:23:00:54:af:eb:d3:4c:e3:28:5a:a1:ba:ca:84:24:
         7b:db:dc:2f:73:98:b3:0f:37:71:a0:ab:47:fe:67:e0:8b:03:
         ca:6c:d4:6c:4e:50:49:8b:b3:41:a9:e6:f6:cb:b6:e1:fd:e6:
         9e:ef:3a:38:85:9b:cd:bb:0a:3e:01:71:2b:3e:22:df:04:f4:
         2b:cf:e0:aa:e1:eb:6e:02:8d:d3:e7:25:9a:29:ca:7e:3e:ac:
         02:52:8e:58:dd:b5:44:62:3f:18:2e:af:25:9f:03:c6:00:47:
         e3:22:78:25:fe:f1:5a:33:5d:ee:7f:81:10:1a:0f:96:d6:78:
         37:20:da:2c:4f:32:ca:4f:46:bf:43:07:2d:e8:54:40:90:77:
         05:cd:e3:ed:9e:fa:5f:2c:0f:4f:c7:4e:d6:15:5f:f9:cc:d8:
         65:a1:af:30:c2:29:a7:8f:26:21:a3:0a:65:60:f4:90:8e:34:
         32:95:99:63:e5:42:6e:d4:52:cc:35:26:0b:8d:0c:e1:98:e5:
         a9:64:7d:f6:b0:02:d2:58:ea:d8:c3:22:0a:0e:86:74:67:84:
         6e:48:75:7c:92:98:9b:6f:75:48:bd:cb:60:c6:f1:05:07:46:
         5c:f2:f1:c6
-----BEGIN CERTIFICATE-----
MIIDwTCCAqmgAwIBAgIBAzANBgkqhkiG9w0BAQsFADA3MQswCQYDVQQGEwJJVDEM
MAoGA1UECgwDSUdJMRowGAYDVQQDDBFUZXN0IENBIChTSEEgMjU2KTAeFw0xMzAy
MDUxNzE1MDhaFw0yMzAyMDMxNzE1MDhaMEQxCzAJBgNVBAYTAklUMQwwCgYDVQQK
EwNJR0kxEDAOBgNVBAsTB1NIQSAyNTYxFTATBgNVBAMTDHNlcnZpY2UtY2VydDCC
ASIwDQYJKoZIhvcNAQEBBQADggEPADCCAQoCggEBAJT+K2icfLEFgzTNHH2+yUPF
FHBd9la89heOnvhiVFKhrKxiIfL3uT0wGGP0q5RGwAqYljjS0nMGUF1rj26CC33c
+lMkQOIy7/KEFOFC458F4F3XMUXqv9aJInHO2GbBdYrR3sf+Wve+T87laBdBtA80
CjgnQzp9ajYd+8eBBftZx3IycEoAaehy0BU7tfOReWNCACDhLNvy63CbrB1cCYbo
ylm0aBAugsioTMI3YoHuc7y9pb6aA2SyOiSs4tcK+gKbxWYXt3SKtvFVC38y+iS9
/Op1LjwcFggKT5cFi7FViX9tltSp/OOeiRWKvwEb4cg+xWs2Q5qmu/w3cgnIikMC
AwEAAaOByjCBxzAMBgNVHRMBAf8EAjAAMB0GA1UdDgQWBBTPbaEJQaMkFvADs/lX
M3FJnA2ZfzAOBgNVHQ8BAf8EBAMCBeAwPgYDVR0lBDcwNQYIKwYBBQUHAwEGCCsG
AQUFBwMCBgorBgEEAYI3CgMDBglghkgBhvhCBAEGCCsGAQUFBwMEMB8GA1UdIwQY
MBaAFB1JJGVNiXawsArG0QpaBrBfPuKJMCcGA1UdEQQgMB6BHGFuZHJlYS5jZWNj
YW50aUBjbmFmLmluZm4uaXQwDQYJKoZIhvcNAQELBQADggEBAHhvwqkBbRlGpnSB
UJ+O5ees06UxfCMAVK/r00zjKFqhusqEJHvb3C9zmLMPN3Ggq0f+Z+CLA8ps1GxO
UEmLs0Gp5vbLtuH95p7vOjiFm827Cj4BcSs+It8E9CvP4Krh624CjdPnJZopyn4+
rAJSjljdtURiPxguryWfA8YAR+MieCX+8VozXe5/gRAaD5bWeDcg2ixPMspPRr9D
By3oVECQdwXN4+2e+l8sD0/HTtYVX/nM2GWhrzDCKaePJiGjCmVg9JCONDKVmWPl
Qm7UUsw1JguNDOGY5alkffawAtJY6tjDIgoOhnRnhG5IdXySmJtvdUi9y2DG8QUH
Rlzy8cY=
-----END CERTIFICATE-----
