Certificate:
    Data:
        Version: 3 (0x2)
        Serial Number: 2 (0x2)
    Signature Algorithm: sha256WithRSAEncryption
        Issuer: C=IT, O=IGI, CN=Test CA (SHA 256)
        Validity
            Not Before: Feb  5 17:14:50 2013 GMT
            Not After : Feb  3 17:14:50 2023 GMT
        Subject: C=IT, O=IGI, OU=SHA 256, CN=test1
        Subject Public Key Info:
            Public Key Algorithm: rsaEncryption
                Public-Key: (2048 bit)
                Modulus:
                    00:c1:a1:8f:76:f9:ff:d2:39:a8:54:3d:0d:05:80:
                    68:71:5d:7c:d9:49:79:3a:79:0b:64:d4:e3:7a:dc:
                    53:a6:a5:a9:d1:81:1b:fa:22:b2:e6:49:aa:cf:3d:
                    1d:0a:6f:bd:58:26:c7:81:1f:4d:4b:d8:97:8a:14:
                    a4:44:5c:c8:30:90:0e:86:a4:b8:91:9b:0b:05:56:
                    4f:85:06:97:40:3a:44:9a:a4:81:17:21:bd:8a:85:
                    8a:ad:a0:f8:de:95:24:52:2f:6c:4f:d6:ba:bc:90:
                    10:c0:27:2d:11:da:96:23:20:41:1b:ad:25:f7:e0:
                    8f:9b:2d:ea:4c:85:dc:5e:94:66:97:87:87:a4:02:
                    99:2d:4c:0a:25:cb:e1:ff:20:37:cb:d7:ae:c6:00:
                    f9:ba:0b:dd:c2:55:00:92:0d:57:8d:69:9d:d2:bc:
                    32:66:46:e1:92:c4:f4:14:7e:c5:af:d8:21:1b:b5:
                    fd:8f:82:f9:3d:87:f0:6e:25:03:7f:27:31:4b:a3:
                    2f:6b:48:02:b6:94:0f:8f:25:b0:c1:19:94:03:cc:
                    64:f8:0b:ad:7e:09:86:49:bf:f1:f3:81:ae:95:31:
                    a5:cc:02:09:24:0b:07:bd:b3:cc:75:b0:1d:38:b1:
                    85:a5:83:b0:97:c9:36:d3:5e:ac:22:f7:26:56:bc:
                    0a:bb
                Exponent: 65537 (0x10001)
        X509v3 extensions:
            X509v3 Basic Constraints: critical
                CA:FALSE
            X509v3 Subject Key Identifier: 
                64:11:9C:DD:CB:53:1B:CB:B8:AE:07:AA:34:B2:C4:14:18:07:C7:3D
            X509v3 Key Usage: critical
                Digital Signature, Non Repudiation, Key Encipherment
            X509v3 Extended Key Usage: 
                TLS Web Server Authentication, TLS Web Client Authentication, Microsoft Server Gated Crypto, Netscape Server Gated Crypto, E-mail Protection
            X509v3 Authority Key Identifier: 
                keyid:1D:49:24:65:4D:89:76:B0:B0:0A:C6:D1:0A:5A:06:B0:5F:3E:E2:89

            X509v3 Subject Alternative Name: 
                email:andrea.ceccanti@cnaf.infn.it
    Signature Algorithm: sha256WithRSAEncryption
         30:ad:55:7c:db:51:b1:14:c2:26:ac:89:a6:df:69:9f:4f:ff:
         72:4a:6a:08:5b:15:a0:fb:ff:f3:6b:40:7a:78:9e:13:48:07:
         f1:35:bc:25:0d:7d:b1:c1:8e:ea:05:25:d3:5c:d9:ea:77:b4:
         7d:47:af:9f:e3:7b:35:57:84:32:68:43:28:12:9a:46:67:74:
         42:64:42:4a:f5:44:46:fe:93:a0:9c:f1:7d:ae:c2:37:77:61:
         9b:f0:32:28:69:6f:83:3a:58:53:66:8a:85:e9:5b:f0:39:3f:
         c9:1a:f5:4a:9f:fa:1f:3a:fb:ef:65:60:d9:f9:48:58:e1:dd:
         97:bc:9f:5e:bd:39:c6:0d:7f:b5:ac:13:ea:fb:ad:69:ae:d8:
         57:ec:43:e6:b3:ea:57:8e:eb:7b:14:21:96:36:91:41:4e:00:
         49:ab:f4:18:cb:29:66:f6:b6:5f:f3:86:72:4f:18:43:5c:ff:
         44:24:d1:08:50:94:6b:b4:18:73:03:52:19:d7:42:9d:ba:45:
         8b:68:e5:e0:44:71:fd:42:52:e8:03:97:9b:29:de:86:56:a3:
         7a:70:f7:f7:17:7a:83:7d:8e:ca:f3:a2:4b:5e:9f:84:64:0f:
         c5:b1:de:03:c7:a2:d7:7f:6e:27:cf:be:71:9e:c2:0b:45:a8:
         63:23:0a:b2
-----BEGIN CERTIFICATE-----
MIIDujCCAqKgAwIBAgIBAjANBgkqhkiG9w0BAQsFADA3MQswCQYDVQQGEwJJVDEM
MAoGA1UECgwDSUdJMRowGAYDVQQDDBFUZXN0IENBIChTSEEgMjU2KTAeFw0xMzAy
MDUxNzE0NTBaFw0yMzAyMDMxNzE0NTBaMD0xCzAJBgNVBAYTAklUMQwwCgYDVQQK
EwNJR0kxEDAOBgNVBAsTB1NIQSAyNTYxDjAMBgNVBAMTBXRlc3QxMIIBIjANBgkq
hkiG9w0BAQEFAAOCAQ8AMIIBCgKCAQEAwaGPdvn/0jmoVD0NBYBocV182Ul5OnkL
ZNTjetxTpqWp0YEb+iKy5kmqzz0dCm+9WCbHgR9NS9iXihSkRFzIMJAOhqS4kZsL
BVZPhQaXQDpEmqSBFyG9ioWKraD43pUkUi9sT9a6vJAQwCctEdqWIyBBG60l9+CP
my3qTIXcXpRml4eHpAKZLUwKJcvh/yA3y9euxgD5ugvdwlUAkg1XjWmd0rwyZkbh
ksT0FH7Fr9ghG7X9j4L5PYfwbiUDfycxS6Mva0gCtpQPjyWwwRmUA8xk+AutfgmG
Sb/x84GulTGlzAIJJAsHvbPMdbAdOLGFpYOwl8k2016sIvcmVrwKuwIDAQABo4HK
MIHHMAwGA1UdEwEB/wQCMAAwHQYDVR0OBBYEFGQRnN3LUxvLuK4HqjSyxBQYB8c9
MA4GA1UdDwEB/wQEAwIF4DA+BgNVHSUENzA1BggrBgEFBQcDAQYIKwYBBQUHAwIG
CisGAQQBgjcKAwMGCWCGSAGG+EIEAQYIKwYBBQUHAwQwHwYDVR0jBBgwFoAUHUkk
ZU2JdrCwCsbRCloGsF8+4okwJwYDVR0RBCAwHoEcYW5kcmVhLmNlY2NhbnRpQGNu
YWYuaW5mbi5pdDANBgkqhkiG9w0BAQsFAAOCAQEAMK1VfNtRsRTCJqyJpt9pn0//
ckpqCFsVoPv/82tAenieE0gH8TW8JQ19scGO6gUl01zZ6ne0fUevn+N7NVeEMmhD
KBKaRmd0QmRCSvVERv6ToJzxfa7CN3dhm/AyKGlvgzpYU2aKhelb8Dk/yRr1Sp/6
Hzr772Vg2flIWOHdl7yfXr05xg1/tawT6vutaa7YV+xD5rPqV47rexQhljaRQU4A
Sav0GMspZva2X/OGck8YQ1z/RCTRCFCUa7QYcwNSGddCnbpFi2jl4ERx/UJS6AOX
mynehlajenD39xd6g32OyvOiS16fhGQPxbHeA8ei139uJ8++cZ7CC0WoYyMKsg==
-----END CERTIFICATE-----
