Certificate:
    Data:
        Version: 3 (0x2)
        Serial Number: 1 (0x1)
    Signature Algorithm: sha256WithRSAEncryption
        Issuer: C=IT, O=IGI, CN=Test CA (SHA 256)
        Validity
            Not Before: Feb  5 17:14:46 2013 GMT
            Not After : Feb  3 17:14:46 2023 GMT
        Subject: C=IT, O=IGI, OU=SHA 256, CN=test0
        Subject Public Key Info:
            Public Key Algorithm: rsaEncryption
                Public-Key: (2048 bit)
                Modulus:
                    00:b2:e9:a3:18:b5:8a:34:ac:ee:8d:68:4a:e9:10:
                    0f:c4:0a:a1:68:90:97:ad:d3:7a:fe:4f:9b:5e:a9:
                    3f:e8:d6:75:1b:f9:45:2f:a4:6d:8b:06:ee:37:9c:
                    4b:80:50:65:7b:a5:9e:5f:a3:8a:0b:54:a8:72:3d:
                    e6:c4:b1:a1:be:ca:7a:c9:7d:a7:56:d1:2a:0e:71:
                    fb:f4:28:2b:85:3c:bb:f1:45:f9:ad:d4:8e:aa:b0:
                    0a:76:c7:20:be:06:84:6b:2c:6e:32:b3:9f:65:00:
                    ee:a8:7b:89:fe:e2:12:62:b6:60:44:ff:42:1c:af:
                    31:13:20:96:4a:78:bc:e6:41:8b:6b:84:ab:07:19:
                    35:46:bf:32:3d:93:aa:c4:f2:52:6f:05:c6:73:7a:
                    24:75:ce:76:b0:bd:7b:b2:2e:72:06:cb:ee:15:75:
                    ac:48:04:26:13:2c:61:2e:eb:fb:a3:21:22:19:37:
                    c8:1c:0e:12:28:de:3c:35:a1:04:5e:6c:6f:8d:ce:
                    bd:8c:3b:a6:e4:d1:24:0c:da:27:19:66:8a:cf:e6:
                    6f:94:3c:39:8d:fb:94:7b:aa:f9:ce:62:03:5e:aa:
                    b7:9e:61:f7:5b:76:8f:44:65:db:5b:43:4a:af:8e:
                    6e:2d:c5:a4:77:78:4d:c5:b4:f9:2a:a2:6d:94:b1:
                    f9:3d
                Exponent: 65537 (0x10001)
        X509v3 extensions:
            X509v3 Basic Constraints: critical
                CA:FALSE
            X509v3 Subject Key Identifier: 
                73:BE:AE:31:A6:CA:08:FD:B1:85:8E:D6:49:D4:9B:49:7B:93:0C:EE
            X509v3 Key Usage: critical
                Digital Signature, Non Repudiation, Key Encipherment
            X509v3 Extended Key Usage: 
                TLS Web Server Authentication, TLS Web Client Authentication, Microsoft Server Gated Crypto, Netscape Server Gated Crypto, E-mail Protection
            X509v3 Authority Key Identifier: 
                keyid:1D:49:24:65:4D:89:76:B0:B0:0A:C6:D1:0A:5A:06:B0:5F:3E:E2:89

            X509v3 Subject Alternative Name: 
                email:andrea.ceccanti@cnaf.infn.it
    Signature Algorithm: sha256WithRSAEncryption
         8a:42:f3:4d:74:63:b0:4e:9d:eb:c3:45:a5:ae:bc:d4:14:2a:
         88:f7:79:29:86:60:c2:8b:aa:70:31:aa:ed:b9:9f:36:73:e5:
         cb:00:c8:59:a8:e3:6b:aa:17:91:42:e8:f2:5e:6b:4f:01:63:
         d8:f8:bf:61:a2:33:33:e3:ce:91:a3:60:fd:00:24:ed:01:dd:
         de:bc:35:d3:ee:20:f2:5c:88:41:68:9e:9c:3a:01:f3:1e:fd:
         53:af:90:33:b3:4e:10:7d:ff:80:d6:6d:4d:36:c1:db:a9:fc:
         f5:6b:30:4f:a3:c4:5c:83:30:be:64:6d:54:74:4d:e5:ad:d5:
         35:20:d3:6e:44:f7:68:99:5d:ac:41:39:58:b0:cc:5f:ca:e4:
         6d:b9:f6:4f:ab:1b:f6:f1:8d:f4:5a:dd:86:b1:e0:e2:0f:6c:
         30:49:f8:e5:32:5b:ae:4c:01:6e:cf:e7:6e:14:51:c5:33:79:
         c6:bd:be:9d:d7:67:5b:1d:5c:c7:69:51:85:e7:e4:7c:f2:ed:
         b6:de:fe:43:44:62:45:65:f3:57:fa:57:21:ce:9a:52:cf:fa:
         a5:b0:f7:f5:63:42:f7:37:52:e6:aa:33:cc:75:3d:17:ba:a0:
         41:92:87:e5:3e:eb:aa:ec:21:fb:55:c4:76:bb:22:75:b9:4d:
         24:4b:92:9f
-----BEGIN CERTIFICATE-----
MIIDujCCAqKgAwIBAgIBATANBgkqhkiG9w0BAQsFADA3MQswCQYDVQQGEwJJVDEM
MAoGA1UECgwDSUdJMRowGAYDVQQDDBFUZXN0IENBIChTSEEgMjU2KTAeFw0xMzAy
MDUxNzE0NDZaFw0yMzAyMDMxNzE0NDZaMD0xCzAJBgNVBAYTAklUMQwwCgYDVQQK
EwNJR0kxEDAOBgNVBAsTB1NIQSAyNTYxDjAMBgNVBAMTBXRlc3QwMIIBIjANBgkq
hkiG9w0BAQEFAAOCAQ8AMIIBCgKCAQEAsumjGLWKNKzujWhK6RAPxAqhaJCXrdN6
/k+bXqk/6NZ1G/lFL6RtiwbuN5xLgFBle6WeX6OKC1Socj3mxLGhvsp6yX2nVtEq
DnH79CgrhTy78UX5rdSOqrAKdscgvgaEayxuMrOfZQDuqHuJ/uISYrZgRP9CHK8x
EyCWSni85kGLa4SrBxk1Rr8yPZOqxPJSbwXGc3okdc52sL17si5yBsvuFXWsSAQm
EyxhLuv7oyEiGTfIHA4SKN48NaEEXmxvjc69jDum5NEkDNonGWaKz+ZvlDw5jfuU
e6r5zmIDXqq3nmH3W3aPRGXbW0NKr45uLcWkd3hNxbT5KqJtlLH5PQIDAQABo4HK
MIHHMAwGA1UdEwEB/wQCMAAwHQYDVR0OBBYEFHO+rjGmygj9sYWO1knUm0l7kwzu
MA4GA1UdDwEB/wQEAwIF4DA+BgNVHSUENzA1BggrBgEFBQcDAQYIKwYBBQUHAwIG
CisGAQQBgjcKAwMGCWCGSAGG+EIEAQYIKwYBBQUHAwQwHwYDVR0jBBgwFoAUHUkk
ZU2JdrCwCsbRCloGsF8+4okwJwYDVR0RBCAwHoEcYW5kcmVhLmNlY2NhbnRpQGNu
YWYuaW5mbi5pdDANBgkqhkiG9w0BAQsFAAOCAQEAikLzTXRjsE6d68NFpa681BQq
iPd5KYZgwouqcDGq7bmfNnPlywDIWajja6oXkULo8l5rTwFj2Pi/YaIzM+POkaNg
/QAk7QHd3rw10+4g8lyIQWienDoB8x79U6+QM7NOEH3/gNZtTTbB26n89WswT6PE
XIMwvmRtVHRN5a3VNSDTbkT3aJldrEE5WLDMX8rkbbn2T6sb9vGN9FrdhrHg4g9s
MEn45TJbrkwBbs/nbhRRxTN5xr2+nddnWx1cx2lRhefkfPLttt7+Q0RiRWXzV/pX
Ic6aUs/6pbD39WNC9zdS5qozzHU9F7qgQZKH5T7rquwh+1XEdrsidblNJEuSnw==
-----END CERTIFICATE-----
