Certificate:
    Data:
        Version: 3 (0x2)
        Serial Number: 6 (0x6)
    Signature Algorithm: sha1WithRSAEncryption
        Issuer: C=IT, O=IGI, CN=Test CA
        Validity
            Not Before: Oct  1 12:59:34 2022 GMT
            Not After : Sep 28 12:59:34 2032 GMT
        Subject: C=IT, O=IGI, CN=apo'strofe
        Subject Public Key Info:
            Public Key Algorithm: rsaEncryption
                Public-Key: (2048 bit)
                Modulus:
                    00:b1:80:19:bb:02:94:68:c8:a9:18:48:72:71:27:
                    dc:11:15:45:05:2d:a9:f4:fc:b7:87:a5:2f:97:b4:
                    ad:4d:5f:88:c2:07:e0:8e:d1:e9:00:9d:01:ad:e1:
                    93:92:72:61:06:80:bf:42:44:71:c3:d4:d6:3c:2f:
                    4d:1a:f1:51:c0:f6:b7:ae:ec:65:9f:d3:9f:b7:e2:
                    e8:a2:7d:1a:96:40:26:b6:45:6f:8c:9d:82:29:46:
                    f1:4c:f4:37:25:ac:80:e9:8c:c6:f9:11:63:81:70:
                    47:f9:ad:f2:b4:e7:68:c7:47:e5:62:10:37:97:f2:
                    6a:55:4e:33:78:e7:5e:b2:dc:cd:59:4d:0e:e6:cf:
                    1c:9f:e7:f1:31:be:e5:01:24:aa:18:df:3e:90:43:
                    c9:43:f1:13:fd:31:7a:dd:85:19:40:ad:4c:0f:e6:
                    91:37:80:87:88:3a:9d:4f:b5:55:07:e4:25:20:48:
                    ab:a7:f8:10:42:99:7f:54:66:e0:a3:0f:44:e6:fa:
                    0d:1c:f6:d4:71:20:77:36:ec:48:38:e7:96:cd:6a:
                    9b:89:aa:26:c1:6d:54:e3:c9:fa:91:9e:39:d4:cc:
                    1e:06:ee:87:b0:30:5b:63:45:17:dd:00:be:a3:08:
                    70:00:74:74:6b:5e:0f:16:ca:9e:fb:29:f6:a9:1a:
                    87:45
                Exponent: 65537 (0x10001)
        X509v3 extensions:
            X509v3 Basic Constraints: critical
                CA:FALSE
            X509v3 Subject Key Identifier: 
                C1:3F:C6:1D:8F:1D:07:AD:96:24:B5:4E:26:8F:A7:82:FB:E3:69:04
            X509v3 Key Usage: critical
                Digital Signature, Non Repudiation, Key Encipherment
            X509v3 Extended Key Usage: 
                TLS Web Server Authentication, TLS Web Client Authentication, Microsoft Server Gated Crypto, Netscape Server Gated Crypto, E-mail Protection
            X509v3 Authority Key Identifier: 
                keyid:50:9B:6F:74:01:E3:1A:03:57:AB:D9:D5:7D:15:64:4C:25:F3:F8:F4

            X509v3 Subject Alternative Name: 
                email:andrea.ceccanti@cnaf.infn.it
    Signature Algorithm: sha1WithRSAEncryption
         b7:fc:7a:38:ff:d5:6c:ba:11:d8:12:42:5f:42:ce:61:6a:b1:
         83:56:48:8d:d3:b8:ee:ce:cf:ca:e9:ce:a9:e1:60:a2:ad:90:
         fc:28:c6:94:73:8a:c4:ed:e7:bf:e1:b1:c9:96:57:3e:a1:00:
         cd:41:d6:17:64:4d:e3:3f:88:91:57:d6:fa:92:fe:fd:16:17:
         df:5f:a0:2b:5c:96:93:89:d2:d9:fc:ad:ba:cb:e0:f3:db:0e:
         87:17:94:90:52:1b:4b:30:14:7d:b2:ab:cd:28:a0:01:55:52:
         b6:dc:55:ea:7f:e5:cf:a3:5b:77:84:ea:15:24:f8:83:cb:1a:
         21:27:9b:46:ab:67:5f:47:88:9b:b0:43:bf:f5:a3:21:21:be:
         17:ae:4d:d8:83:ba:00:10:d4:dc:45:a1:8e:d1:60:0a:44:1a:
         5e:15:1d:46:2a:23:48:6f:88:67:92:b0:50:fb:32:71:8f:5f:
         9f:72:25:20:f2:20:da:28:48:05:a6:c7:d4:96:71:03:c3:4a:
         57:d4:7e:df:79:eb:d1:88:a1:82:9c:fe:f7:7e:1f:1a:90:60:
         70:34:1e:0f:43:47:2a:b9:0f:c3:98:37:e4:c1:f7:de:59:ff:
         ed:7a:8b:65:32:93:a5:77:ab:16:eb:e9:2a:de:6f:57:7d:11:
         e8:df:78:47
-----BEGIN CERTIFICATE-----
MIIDozCCAougAwIBAgIBBjANBgkqhkiG9w0BAQUFADAtMQswCQYDVQQGEwJJVDEM
MAoGA1UECgwDSUdJMRAwDgYDVQQDDAdUZXN0IENBMB4XDTIyMTAwMTEyNTkzNFoX
DTMyMDkyODEyNTkzNFowMDELMAkGA1UEBhMCSVQxDDAKBgNVBAoMA0lHSTETMBEG
A1UEAwwKYXBvJ3N0cm9mZTCCASIwDQYJKoZIhvcNAQEBBQADggEPADCCAQoCggEB
ALGAGbsClGjIqRhIcnEn3BEVRQUtqfT8t4elL5e0rU1fiMIH4I7R6QCdAa3hk5Jy
YQaAv0JEccPU1jwvTRrxUcD2t67sZZ/Tn7fi6KJ9GpZAJrZFb4ydgilG8Uz0NyWs
gOmMxvkRY4FwR/mt8rTnaMdH5WIQN5fyalVOM3jnXrLczVlNDubPHJ/n8TG+5QEk
qhjfPpBDyUPxE/0xet2FGUCtTA/mkTeAh4g6nU+1VQfkJSBIq6f4EEKZf1Rm4KMP
ROb6DRz21HEgdzbsSDjnls1qm4mqJsFtVOPJ+pGeOdTMHgbuh7AwW2NFF90AvqMI
cAB0dGteDxbKnvsp9qkah0UCAwEAAaOByjCBxzAMBgNVHRMBAf8EAjAAMB0GA1Ud
DgQWBBTBP8Ydjx0HrZYktU4mj6eC++NpBDAOBgNVHQ8BAf8EBAMCBeAwPgYDVR0l
BDcwNQYIKwYBBQUHAwEGCCsGAQUFBwMCBgorBgEEAYI3CgMDBglghkgBhvhCBAEG
CCsGAQUFBwMEMB8GA1UdIwQYMBaAFFCbb3QB4xoDV6vZ1X0VZEwl8/j0MCcGA1Ud
EQQgMB6BHGFuZHJlYS5jZWNjYW50aUBjbmFmLmluZm4uaXQwDQYJKoZIhvcNAQEF
BQADggEBALf8ejj/1Wy6EdgSQl9CzmFqsYNWSI3TuO7Oz8rpzqnhYKKtkPwoxpRz
isTt57/hscmWVz6hAM1B1hdkTeM/iJFX1vqS/v0WF99foCtclpOJ0tn8rbrL4PPb
DocXlJBSG0swFH2yq80ooAFVUrbcVep/5c+jW3eE6hUk+IPLGiEnm0arZ19HiJuw
Q7/1oyEhvheuTdiDugAQ1NxFoY7RYApEGl4VHUYqI0hviGeSsFD7MnGPX59yJSDy
INooSAWmx9SWcQPDSlfUft9569GIoYKc/vd+HxqQYHA0Hg9DRyq5D8OYN+TB995Z
/+16i2Uyk6V3qxbr6Sreb1d9EejfeEc=
-----END CERTIFICATE-----
