Certificate:
    Data:
        Version: 3 (0x2)
        Serial Number: 5 (0x5)
    Signature Algorithm: sha1WithRSAEncryption
        Issuer: C=IT, O=IGI, CN=Test CA
        Validity
            Not Before: Sep 26 15:35:46 2012 GMT
            Not After : Sep 24 15:35:46 2022 GMT
        Subject: C=IT, O=IGI, CN=apo'strofe
        Subject Public Key Info:
            Public Key Algorithm: rsaEncryption
                Public-Key: (2048 bit)
                Modulus:
                    00:bf:ae:85:bf:f7:e1:0e:f3:15:dc:eb:66:56:23:
                    a7:48:9d:3a:68:1b:67:4f:95:87:ed:22:86:8c:23:
                    a0:63:71:c4:95:af:5e:dc:22:86:41:54:7a:c6:37:
                    95:1e:43:67:ed:04:b7:88:6c:19:81:0e:ee:dc:a9:
                    64:d1:3d:56:70:e7:44:7a:ae:b8:c1:6d:ba:89:17:
                    19:fa:99:fd:40:5b:35:45:c0:a4:f2:23:39:fd:ac:
                    9a:1a:f0:de:5c:c9:86:f3:66:71:ae:d4:24:2d:06:
                    e5:c8:32:15:70:ec:5d:02:d7:20:32:f8:0b:19:9b:
                    24:f6:36:67:57:24:ee:af:70:c5:35:14:42:d5:1f:
                    2c:26:36:f2:60:15:c0:61:90:f4:51:65:41:28:d1:
                    3d:a2:3f:b0:6c:8e:ee:29:e9:17:fb:e8:ad:2f:42:
                    62:28:68:26:90:37:a9:d7:ca:e1:1f:1f:17:ef:0c:
                    67:7e:40:34:32:71:cc:1c:53:77:c5:fa:eb:ca:ea:
                    a4:f8:67:26:bb:db:0c:af:41:8b:3a:23:80:2e:54:
                    c0:c6:5b:42:28:02:0b:b4:48:94:a1:61:91:38:93:
                    9b:79:f8:f2:4b:fc:14:01:61:6a:e0:fb:60:24:36:
                    e0:43:be:92:ff:87:2f:3a:36:4a:d7:89:63:84:ba:
                    08:59
                Exponent: 65537 (0x10001)
        X509v3 extensions:
            X509v3 Basic Constraints: critical
                CA:FALSE
            X509v3 Subject Key Identifier: 
                68:F7:43:55:12:DB:DF:3A:98:33:B1:EC:5E:C2:94:69:DB:16:AA:61
            X509v3 Key Usage: critical
                Digital Signature, Non Repudiation, Key Encipherment
            X509v3 Extended Key Usage: 
                TLS Web Server Authentication, TLS Web Client Authentication, Microsoft Server Gated Crypto, Netscape Server Gated Crypto, E-mail Protection
            X509v3 Authority Key Identifier: 
                keyid:91:77:36:7B:2E:B4:69:F3:27:EA:B7:F6:08:8B:4A:23:A2:11:49:C6

            X509v3 Subject Alternative Name: 
                email:andrea.ceccanti@cnaf.infn.it
    Signature Algorithm: sha1WithRSAEncryption
         67:37:b9:ca:4b:8d:52:2a:73:5e:8f:2c:35:0e:13:9c:30:e4:
         41:ad:cd:08:b3:97:3b:9c:bd:12:79:4e:96:e0:55:02:3c:03:
         03:f5:b8:8c:ec:70:a8:a0:ab:31:f9:c3:33:51:bf:b0:13:1d:
         75:7a:c5:94:d3:38:73:17:43:5c:27:38:17:d3:0e:da:cd:6d:
         99:bd:f7:5e:e6:86:3f:b7:92:4e:4b:3f:c3:64:ca:65:ce:ed:
         fb:a9:5d:8d:79:c7:c9:35:4a:50:71:49:b8:dd:47:0c:51:28:
         9e:ed:2b:f3:d4:a1:45:31:30:68:98:65:61:b4:fd:54:40:e1:
         d2:de:99:7b:72:12:43:53:af:a0:93:73:e1:a8:fa:b6:f4:3e:
         f9:ce:d2:1c:6e:cb:c2:bd:58:13:89:63:16:b5:71:6f:92:76:
         da:37:ae:5c:e6:55:cd:09:e4:84:0e:1c:3c:5e:91:f7:11:ba:
         dc:da:b7:8a:73:9c:b9:09:bf:e7:eb:3a:66:03:95:c6:18:37:
         8f:c6:05:d2:62:0a:65:53:92:e6:d7:64:60:4e:b0:a5:4e:a5:
         79:30:0c:8b:8a:5c:53:46:94:a3:47:07:a9:c9:6c:f9:aa:8a:
         f5:6c:18:06:51:df:af:c4:d1:26:9d:25:ed:6d:36:6d:a6:44:
         aa:45:e9:41
-----BEGIN CERTIFICATE-----
MIIDozCCAougAwIBAgIBBTANBgkqhkiG9w0BAQUFADAtMQswCQYDVQQGEwJJVDEM
MAoGA1UECgwDSUdJMRAwDgYDVQQDDAdUZXN0IENBMB4XDTEyMDkyNjE1MzU0NloX
DTIyMDkyNDE1MzU0NlowMDELMAkGA1UEBhMCSVQxDDAKBgNVBAoTA0lHSTETMBEG
A1UEAxMKYXBvJ3N0cm9mZTCCASIwDQYJKoZIhvcNAQEBBQADggEPADCCAQoCggEB
AL+uhb/34Q7zFdzrZlYjp0idOmgbZ0+Vh+0ihowjoGNxxJWvXtwihkFUesY3lR5D
Z+0Et4hsGYEO7typZNE9VnDnRHquuMFtuokXGfqZ/UBbNUXApPIjOf2smhrw3lzJ
hvNmca7UJC0G5cgyFXDsXQLXIDL4CxmbJPY2Z1ck7q9wxTUUQtUfLCY28mAVwGGQ
9FFlQSjRPaI/sGyO7inpF/vorS9CYihoJpA3qdfK4R8fF+8MZ35ANDJxzBxTd8X6
68rqpPhnJrvbDK9BizojgC5UwMZbQigCC7RIlKFhkTiTm3n48kv8FAFhauD7YCQ2
4EO+kv+HLzo2SteJY4S6CFkCAwEAAaOByjCBxzAMBgNVHRMBAf8EAjAAMB0GA1Ud
DgQWBBRo90NVEtvfOpgzsexewpRp2xaqYTAOBgNVHQ8BAf8EBAMCBeAwPgYDVR0l
BDcwNQYIKwYBBQUHAwEGCCsGAQUFBwMCBgorBgEEAYI3CgMDBglghkgBhvhCBAEG
CCsGAQUFBwMEMB8GA1UdIwQYMBaAFJF3NnsutGnzJ+q39giLSiOiEUnGMCcGA1Ud
EQQgMB6BHGFuZHJlYS5jZWNjYW50aUBjbmFmLmluZm4uaXQwDQYJKoZIhvcNAQEF
BQADggEBAGc3ucpLjVIqc16PLDUOE5ww5EGtzQizlzucvRJ5TpbgVQI8AwP1uIzs
cKigqzH5wzNRv7ATHXV6xZTTOHMXQ1wnOBfTDtrNbZm9917mhj+3kk5LP8NkymXO
7fupXY15x8k1SlBxSbjdRwxRKJ7tK/PUoUUxMGiYZWG0/VRA4dLemXtyEkNTr6CT
c+Go+rb0PvnO0hxuy8K9WBOJYxa1cW+Sdto3rlzmVc0J5IQOHDxekfcRutzat4pz
nLkJv+frOmYDlcYYN4/GBdJiCmVTkubXZGBOsKVOpXkwDIuKXFNGlKNHB6nJbPmq
ivVsGAZR36/E0SadJe1tNm2mRKpF6UE=
-----END CERTIFICATE-----
