Certificate:
    Data:
        Version: 3 (0x2)
        Serial Number: 18 (0x12)
    Signature Algorithm: sha1WithRSAEncryption
        Issuer: C=IT, O=IGI, CN=Test CA
        Validity
            Not Before: Dec  5 08:43:46 2012 GMT
            Not After : Dec  3 08:43:46 2022 GMT
        Subject: C=IT, O=IGI, CN=dn_with_email/emailAddress=andrea.ceccanti@cnaf.infn.it
        Subject Public Key Info:
            Public Key Algorithm: rsaEncryption
                Public-Key: (2048 bit)
                Modulus:
                    00:b6:69:fc:76:a1:7e:e4:13:1f:ef:86:70:71:4f:
                    c1:b5:71:d9:1e:81:c7:bf:e8:5c:68:82:03:5a:0d:
                    5f:b6:7c:e0:50:6f:d4:6a:4e:bc:1d:db:7d:b2:25:
                    fe:65:ea:07:88:77:c0:2a:cb:06:e7:9f:74:29:c5:
                    98:b1:5b:c1:5f:e1:2c:04:47:1e:14:6e:10:1d:7e:
                    41:fd:8a:9d:96:e7:b0:24:24:a8:47:17:76:8f:1d:
                    65:0c:59:36:27:7e:e6:b4:e4:b4:ba:23:d4:51:17:
                    ac:b9:6e:2b:94:70:21:3c:c2:37:43:71:8e:c6:a1:
                    97:57:c4:d2:77:8e:d7:23:f8:40:5b:3c:ea:49:98:
                    68:57:c2:3f:90:3f:b0:df:ff:d6:87:24:f7:49:d3:
                    37:57:2c:7a:2a:e6:3e:df:f5:a4:00:e1:e8:71:84:
                    a2:c6:14:f6:1c:ff:67:45:93:5b:96:d5:0a:37:3d:
                    db:6b:79:fd:27:fd:77:f4:80:38:c1:1f:e8:41:d6:
                    27:ae:2c:d8:0d:67:76:89:84:83:3d:0a:de:f2:d6:
                    eb:32:c7:db:00:81:89:34:70:32:c2:b2:c0:af:cf:
                    4a:7c:a3:db:dc:99:50:82:59:59:9a:2b:9d:95:ea:
                    60:c8:9e:d7:83:ab:27:0d:b6:16:dc:2c:cf:52:ee:
                    f7:df
                Exponent: 65537 (0x10001)
        X509v3 extensions:
            X509v3 Basic Constraints: critical
                CA:FALSE
            X509v3 Subject Key Identifier: 
                2D:E2:0D:B4:F7:80:DC:EB:4C:2E:82:BF:11:47:CC:29:AB:CD:2D:CF
            X509v3 Key Usage: critical
                Digital Signature, Non Repudiation, Key Encipherment
            X509v3 Extended Key Usage: 
                TLS Web Server Authentication, TLS Web Client Authentication, Microsoft Server Gated Crypto, Netscape Server Gated Crypto, E-mail Protection
            X509v3 Authority Key Identifier: 
                keyid:91:77:36:7B:2E:B4:69:F3:27:EA:B7:F6:08:8B:4A:23:A2:11:49:C6

            X509v3 Subject Alternative Name: 
                email:andrea.ceccanti@cnaf.infn.it
    Signature Algorithm: sha1WithRSAEncryption
         51:53:d7:07:c4:f4:50:fd:a2:06:af:3e:85:25:32:54:48:07:
         38:bc:1c:86:16:02:d6:29:80:c3:a0:a5:6e:58:ff:41:0b:b0:
         23:84:4c:68:a4:cb:e5:af:a2:44:9c:b6:ef:c6:d6:dd:d5:89:
         d3:40:d6:fb:f1:90:58:90:5c:ac:ee:37:47:6e:03:a5:27:65:
         58:a7:c1:56:cb:ee:04:bd:26:3e:ae:09:02:40:fc:12:15:e0:
         fe:17:3f:bd:35:30:24:56:7e:39:a2:f1:4b:87:69:2a:20:96:
         14:18:f5:35:ed:d6:23:15:32:67:cd:eb:8e:e5:a4:70:d7:f6:
         05:5a:96:13:32:bf:c2:81:f5:25:42:f4:f1:11:a1:06:58:19:
         fe:ab:0e:73:b1:51:7e:e2:de:10:24:3e:a0:6a:6b:4c:4a:96:
         26:f7:67:a0:78:18:61:55:ce:a7:3b:1c:79:34:03:41:8f:cf:
         fc:90:49:44:6a:df:7d:72:76:ca:b5:2c:65:6b:57:46:98:53:
         ca:bd:1f:c1:48:fd:7d:c8:70:0c:c2:ca:07:6f:ec:91:71:13:
         b6:a4:40:78:c2:9f:77:91:db:2e:9e:bc:02:2d:1e:21:9c:45:
         98:7b:75:4a:52:7b:a0:74:47:34:a0:8d:9a:a6:d4:1e:0d:23:
         f2:49:af:86
-----BEGIN CERTIFICATE-----
MIID0zCCArugAwIBAgIBEjANBgkqhkiG9w0BAQUFADAtMQswCQYDVQQGEwJJVDEM
MAoGA1UECgwDSUdJMRAwDgYDVQQDDAdUZXN0IENBMB4XDTEyMTIwNTA4NDM0NloX
DTIyMTIwMzA4NDM0NlowYDELMAkGA1UEBhMCSVQxDDAKBgNVBAoTA0lHSTEWMBQG
A1UEAxQNZG5fd2l0aF9lbWFpbDErMCkGCSqGSIb3DQEJARYcYW5kcmVhLmNlY2Nh
bnRpQGNuYWYuaW5mbi5pdDCCASIwDQYJKoZIhvcNAQEBBQADggEPADCCAQoCggEB
ALZp/HahfuQTH++GcHFPwbVx2R6Bx7/oXGiCA1oNX7Z84FBv1GpOvB3bfbIl/mXq
B4h3wCrLBuefdCnFmLFbwV/hLARHHhRuEB1+Qf2KnZbnsCQkqEcXdo8dZQxZNid+
5rTktLoj1FEXrLluK5RwITzCN0Nxjsahl1fE0neO1yP4QFs86kmYaFfCP5A/sN//
1ock90nTN1cseirmPt/1pADh6HGEosYU9hz/Z0WTW5bVCjc922t5/Sf9d/SAOMEf
6EHWJ64s2A1ndomEgz0K3vLW6zLH2wCBiTRwMsKywK/PSnyj29yZUIJZWZornZXq
YMie14OrJw22Ftwsz1Lu998CAwEAAaOByjCBxzAMBgNVHRMBAf8EAjAAMB0GA1Ud
DgQWBBQt4g2094Dc60wugr8RR8wpq80tzzAOBgNVHQ8BAf8EBAMCBeAwPgYDVR0l
BDcwNQYIKwYBBQUHAwEGCCsGAQUFBwMCBgorBgEEAYI3CgMDBglghkgBhvhCBAEG
CCsGAQUFBwMEMB8GA1UdIwQYMBaAFJF3NnsutGnzJ+q39giLSiOiEUnGMCcGA1Ud
EQQgMB6BHGFuZHJlYS5jZWNjYW50aUBjbmFmLmluZm4uaXQwDQYJKoZIhvcNAQEF
BQADggEBAFFT1wfE9FD9ogavPoUlMlRIBzi8HIYWAtYpgMOgpW5Y/0ELsCOETGik
y+WvokSctu/G1t3VidNA1vvxkFiQXKzuN0duA6UnZVinwVbL7gS9Jj6uCQJA/BIV
4P4XP701MCRWfjmi8UuHaSoglhQY9TXt1iMVMmfN647lpHDX9gValhMyv8KB9SVC
9PERoQZYGf6rDnOxUX7i3hAkPqBqa0xKlib3Z6B4GGFVzqc7HHk0A0GPz/yQSURq
331ydsq1LGVrV0aYU8q9H8FI/X3IcAzCygdv7JFxE7akQHjCn3eR2y6evAItHiGc
RZh7dUpSe6B0RzSgjZqm1B4NI/JJr4Y=
-----END CERTIFICATE-----
