Certificate:
    Data:
        Version: 3 (0x2)
        Serial Number: 38 (0x26)
    Signature Algorithm: sha1WithRSAEncryption
        Issuer: C=IT, O=IGI, CN=Test CA
        Validity
            Not Before: Sep 17 13:33:11 2013 GMT
            Not After : Sep 15 13:33:11 2023 GMT
        Subject: C=IT, O=IGI, CN=load0
        Subject Public Key Info:
            Public Key Algorithm: rsaEncryption
                Public-Key: (2048 bit)
                Modulus:
                    00:c5:80:31:73:2b:f7:4b:31:14:05:3c:5a:a6:10:
                    6f:27:40:8a:09:e2:7b:d2:3a:54:d9:13:e0:db:14:
                    1c:16:58:b2:20:7f:d6:b2:7a:01:8a:b9:6f:6e:f4:
                    b1:a6:37:3b:5c:48:7a:71:7e:b5:f6:4d:c2:85:4d:
                    34:36:96:fd:65:66:84:f1:f9:0f:ee:be:8d:fd:1d:
                    e1:22:43:45:24:07:08:4b:7e:ac:2b:5f:51:a7:be:
                    cf:60:73:55:9d:60:65:d8:42:e4:d7:ad:16:64:bc:
                    72:7e:01:3a:0c:e0:71:11:5f:6e:6c:dd:7a:24:9d:
                    42:fe:7e:5e:43:76:55:dc:f3:14:5e:8e:85:fb:16:
                    d6:b9:fd:9c:11:20:6f:75:96:66:15:6f:e5:e1:c4:
                    c0:04:3b:60:86:07:17:2d:e3:d0:a1:1a:ef:87:62:
                    74:3c:0c:55:fa:ff:be:77:41:f4:a3:c9:ab:b0:e4:
                    dd:37:da:0a:f5:2e:ea:8d:a7:69:08:0e:15:0e:16:
                    19:db:f1:ad:17:99:d6:5a:66:07:56:94:86:47:26:
                    dd:da:be:5e:a2:6e:95:8e:c6:76:54:35:5d:10:d3:
                    99:71:f5:8f:16:8f:9c:06:de:6a:e4:1a:85:5b:0f:
                    20:ab:a6:12:84:15:4f:c4:46:c9:bf:1d:fd:45:8d:
                    11:55
                Exponent: 65537 (0x10001)
        X509v3 extensions:
            X509v3 Basic Constraints: critical
                CA:FALSE
            X509v3 Subject Key Identifier: 
                0B:40:35:32:F7:52:D8:46:A0:BB:14:23:C2:A9:3B:4F:D6:30:EF:58
            X509v3 Key Usage: critical
                Digital Signature, Non Repudiation, Key Encipherment
            X509v3 Extended Key Usage: 
                TLS Web Server Authentication, TLS Web Client Authentication, Microsoft Server Gated Crypto, Netscape Server Gated Crypto, E-mail Protection
            X509v3 Authority Key Identifier: 
                keyid:91:77:36:7B:2E:B4:69:F3:27:EA:B7:F6:08:8B:4A:23:A2:11:49:C6

            X509v3 Subject Alternative Name: 
                email:andrea.ceccanti@cnaf.infn.it
    Signature Algorithm: sha1WithRSAEncryption
         8d:67:81:3a:07:be:7e:43:c3:75:5f:14:56:3b:b5:f7:d8:65:
         b0:e8:4a:5d:f0:7f:88:44:37:dd:2d:b1:56:e6:36:10:a2:0d:
         0c:ca:dd:81:f0:58:85:04:cb:97:15:19:fd:77:c2:ac:75:86:
         29:72:44:9f:b4:b8:43:1d:15:02:88:a5:d2:a6:a2:8e:4b:ae:
         1b:fb:ab:4c:a1:8d:28:68:f1:39:c6:3f:3e:14:28:87:41:a4:
         22:11:9c:7e:1c:d0:db:f1:cb:f8:7e:80:cb:75:9b:47:e7:a8:
         f1:0d:9c:e9:2f:8b:99:7c:28:e0:0e:dd:ee:4a:a7:4d:cd:ef:
         fb:dd:9f:c6:16:37:10:71:72:b1:86:59:fe:c6:4a:f8:a3:ac:
         28:20:6e:56:43:7d:9f:40:18:4d:89:e8:3a:7c:2b:27:5b:89:
         c5:d2:75:4d:b0:c8:ae:a4:50:60:fa:c7:49:39:42:f3:57:55:
         94:31:c9:9f:9a:ef:ce:5d:b5:96:fc:c9:05:8b:c0:c6:0c:b4:
         78:3f:3f:c3:da:1f:ab:85:75:8a:73:d3:ab:19:9e:dc:65:f3:
         8b:4a:3d:fc:ca:82:14:b9:be:59:05:c4:f5:dc:05:42:ca:83:
         31:d9:4a:74:7e:08:67:17:bf:a2:dd:ef:56:6d:45:76:da:f8:
         de:bb:47:ab
-----BEGIN CERTIFICATE-----
MIIDnjCCAoagAwIBAgIBJjANBgkqhkiG9w0BAQUFADAtMQswCQYDVQQGEwJJVDEM
MAoGA1UECgwDSUdJMRAwDgYDVQQDDAdUZXN0IENBMB4XDTEzMDkxNzEzMzMxMVoX
DTIzMDkxNTEzMzMxMVowKzELMAkGA1UEBhMCSVQxDDAKBgNVBAoTA0lHSTEOMAwG
A1UEAxMFbG9hZDAwggEiMA0GCSqGSIb3DQEBAQUAA4IBDwAwggEKAoIBAQDFgDFz
K/dLMRQFPFqmEG8nQIoJ4nvSOlTZE+DbFBwWWLIgf9ayegGKuW9u9LGmNztcSHpx
frX2TcKFTTQ2lv1lZoTx+Q/uvo39HeEiQ0UkBwhLfqwrX1Gnvs9gc1WdYGXYQuTX
rRZkvHJ+AToM4HERX25s3XoknUL+fl5DdlXc8xRejoX7Fta5/ZwRIG91lmYVb+Xh
xMAEO2CGBxct49ChGu+HYnQ8DFX6/753QfSjyauw5N032gr1LuqNp2kIDhUOFhnb
8a0XmdZaZgdWlIZHJt3avl6ibpWOxnZUNV0Q05lx9Y8Wj5wG3mrkGoVbDyCrphKE
FU/ERsm/Hf1FjRFVAgMBAAGjgcowgccwDAYDVR0TAQH/BAIwADAdBgNVHQ4EFgQU
C0A1MvdS2EaguxQjwqk7T9Yw71gwDgYDVR0PAQH/BAQDAgXgMD4GA1UdJQQ3MDUG
CCsGAQUFBwMBBggrBgEFBQcDAgYKKwYBBAGCNwoDAwYJYIZIAYb4QgQBBggrBgEF
BQcDBDAfBgNVHSMEGDAWgBSRdzZ7LrRp8yfqt/YIi0ojohFJxjAnBgNVHREEIDAe
gRxhbmRyZWEuY2VjY2FudGlAY25hZi5pbmZuLml0MA0GCSqGSIb3DQEBBQUAA4IB
AQCNZ4E6B75+Q8N1XxRWO7X32GWw6Epd8H+IRDfdLbFW5jYQog0Myt2B8FiFBMuX
FRn9d8KsdYYpckSftLhDHRUCiKXSpqKOS64b+6tMoY0oaPE5xj8+FCiHQaQiEZx+
HNDb8cv4foDLdZtH56jxDZzpL4uZfCjgDt3uSqdNze/73Z/GFjcQcXKxhln+xkr4
o6woIG5WQ32fQBhNieg6fCsnW4nF0nVNsMiupFBg+sdJOULzV1WUMcmfmu/OXbWW
/MkFi8DGDLR4Pz/D2h+rhXWKc9OrGZ7cZfOLSj38yoIUub5ZBcT13AVCyoMx2Up0
fghnF7+i3e9WbUV22vjeu0er
-----END CERTIFICATE-----
