Certificate:
    Data:
        Version: 3 (0x2)
        Serial Number: 41 (0x29)
    Signature Algorithm: sha1WithRSAEncryption
        Issuer: C=IT, O=IGI, CN=Test CA
        Validity
            Not Before: Sep 17 13:33:15 2013 GMT
            Not After : Sep 15 13:33:15 2023 GMT
        Subject: C=IT, O=IGI, CN=load3
        Subject Public Key Info:
            Public Key Algorithm: rsaEncryption
                Public-Key: (2048 bit)
                Modulus:
                    00:e1:22:b6:2f:6f:5f:69:13:8b:2e:40:7c:d9:8a:
                    20:63:45:f0:56:90:c9:84:cd:7e:52:cc:da:10:09:
                    a0:ea:5d:53:88:a8:2e:fb:a2:ea:93:81:5e:a8:ef:
                    00:52:5a:77:51:46:ee:4d:4c:ce:69:36:f2:d6:b1:
                    3e:30:b4:97:e4:5b:0f:d9:9c:9d:46:8d:ef:b7:04:
                    67:26:dd:4b:51:a2:6f:7e:84:a0:9f:3c:6a:2c:0e:
                    62:d9:ab:79:1c:d8:33:20:34:de:cd:35:d8:39:72:
                    ec:3b:c4:87:49:b4:db:5c:50:98:26:06:f7:9f:76:
                    ae:37:4b:db:3a:a1:d0:9a:84:c3:cc:ee:b0:a1:7d:
                    04:b0:e1:b5:11:57:1f:8d:3f:f1:80:d4:c8:8d:a2:
                    cc:25:47:18:65:12:73:71:69:8c:c6:83:09:ff:30:
                    2d:33:13:a2:e8:ad:a5:5c:43:75:a9:3c:50:de:a3:
                    07:50:68:e5:0b:4d:f1:0b:87:14:7b:3d:76:70:4c:
                    3e:b0:c3:0d:86:b1:47:ba:d1:9b:9e:90:d0:66:80:
                    30:9b:b7:a9:65:c2:e9:2c:b0:c1:6b:25:02:96:7f:
                    64:90:eb:a5:cd:d7:2d:21:76:1b:70:5a:84:83:bc:
                    2e:e4:33:74:dc:f3:04:31:50:7d:67:82:8d:46:7d:
                    f4:47
                Exponent: 65537 (0x10001)
        X509v3 extensions:
            X509v3 Basic Constraints: critical
                CA:FALSE
            X509v3 Subject Key Identifier: 
                CA:55:EE:6D:19:F1:6D:BA:62:F5:8D:E3:55:61:CC:C8:59:7A:00:72
            X509v3 Key Usage: critical
                Digital Signature, Non Repudiation, Key Encipherment
            X509v3 Extended Key Usage: 
                TLS Web Server Authentication, TLS Web Client Authentication, Microsoft Server Gated Crypto, Netscape Server Gated Crypto, E-mail Protection
            X509v3 Authority Key Identifier: 
                keyid:91:77:36:7B:2E:B4:69:F3:27:EA:B7:F6:08:8B:4A:23:A2:11:49:C6

            X509v3 Subject Alternative Name: 
                email:andrea.ceccanti@cnaf.infn.it
    Signature Algorithm: sha1WithRSAEncryption
         df:59:6b:9c:e8:7e:3d:a9:01:e4:85:f8:b0:42:e5:4a:76:39:
         28:29:73:58:9a:17:92:ae:0c:c2:64:24:35:a4:b2:5f:a9:82:
         1d:5c:35:90:e5:a3:2f:5c:c2:52:1a:cb:c8:6c:30:48:51:17:
         33:0f:fe:16:48:9e:ae:e3:fa:25:3e:f8:b5:35:71:2c:8e:52:
         74:91:c7:17:ac:94:21:6b:d0:bd:4a:49:f1:65:5f:49:8e:3f:
         1b:4d:46:44:a2:bc:3c:9b:d7:19:15:c0:d7:32:5e:65:4d:43:
         d5:3c:1c:9a:23:75:5c:0f:08:55:3d:05:76:fd:87:a1:c7:51:
         7e:af:19:95:4a:ef:a1:c1:87:b0:d3:33:0d:19:9a:92:84:9b:
         7b:e4:69:b5:9b:57:80:d7:1b:c2:78:20:85:76:d0:08:f4:cf:
         bb:07:42:8b:29:c5:a9:2e:95:4b:14:02:43:60:8c:f5:d5:d8:
         42:f9:e9:9b:65:75:8a:de:c9:e6:b7:55:97:db:f7:ad:34:d2:
         67:b5:bc:42:b2:26:cd:c6:80:c9:8e:c2:88:d2:cd:b3:45:b4:
         35:48:fa:0e:95:50:7b:c3:a7:58:67:4d:e4:b2:4d:2d:29:e5:
         46:e4:6e:23:f3:ac:95:42:44:b0:aa:0d:7f:73:f4:2f:a0:d5:
         6f:3d:07:ff
-----BEGIN CERTIFICATE-----
MIIDnjCCAoagAwIBAgIBKTANBgkqhkiG9w0BAQUFADAtMQswCQYDVQQGEwJJVDEM
MAoGA1UECgwDSUdJMRAwDgYDVQQDDAdUZXN0IENBMB4XDTEzMDkxNzEzMzMxNVoX
DTIzMDkxNTEzMzMxNVowKzELMAkGA1UEBhMCSVQxDDAKBgNVBAoTA0lHSTEOMAwG
A1UEAxMFbG9hZDMwggEiMA0GCSqGSIb3DQEBAQUAA4IBDwAwggEKAoIBAQDhIrYv
b19pE4suQHzZiiBjRfBWkMmEzX5SzNoQCaDqXVOIqC77ouqTgV6o7wBSWndRRu5N
TM5pNvLWsT4wtJfkWw/ZnJ1Gje+3BGcm3UtRom9+hKCfPGosDmLZq3kc2DMgNN7N
Ndg5cuw7xIdJtNtcUJgmBvefdq43S9s6odCahMPM7rChfQSw4bURVx+NP/GA1MiN
oswlRxhlEnNxaYzGgwn/MC0zE6LoraVcQ3WpPFDeowdQaOULTfELhxR7PXZwTD6w
ww2GsUe60ZuekNBmgDCbt6llwukssMFrJQKWf2SQ66XN1y0hdhtwWoSDvC7kM3Tc
8wQxUH1ngo1GffRHAgMBAAGjgcowgccwDAYDVR0TAQH/BAIwADAdBgNVHQ4EFgQU
ylXubRnxbbpi9Y3jVWHMyFl6AHIwDgYDVR0PAQH/BAQDAgXgMD4GA1UdJQQ3MDUG
CCsGAQUFBwMBBggrBgEFBQcDAgYKKwYBBAGCNwoDAwYJYIZIAYb4QgQBBggrBgEF
BQcDBDAfBgNVHSMEGDAWgBSRdzZ7LrRp8yfqt/YIi0ojohFJxjAnBgNVHREEIDAe
gRxhbmRyZWEuY2VjY2FudGlAY25hZi5pbmZuLml0MA0GCSqGSIb3DQEBBQUAA4IB
AQDfWWuc6H49qQHkhfiwQuVKdjkoKXNYmheSrgzCZCQ1pLJfqYIdXDWQ5aMvXMJS
GsvIbDBIURczD/4WSJ6u4/olPvi1NXEsjlJ0kccXrJQha9C9SknxZV9Jjj8bTUZE
orw8m9cZFcDXMl5lTUPVPByaI3VcDwhVPQV2/Yehx1F+rxmVSu+hwYew0zMNGZqS
hJt75Gm1m1eA1xvCeCCFdtAI9M+7B0KLKcWpLpVLFAJDYIz11dhC+embZXWK3snm
t1WX2/etNNJntbxCsibNxoDJjsKI0s2zRbQ1SPoOlVB7w6dYZ03ksk0tKeVG5G4j
86yVQkSwqg1/c/QvoNVvPQf/
-----END CERTIFICATE-----
