Certificate:
    Data:
        Version: 3 (0x2)
        Serial Number: 52 (0x34)
    Signature Algorithm: sha1WithRSAEncryption
        Issuer: C=IT, O=IGI, CN=Test CA
        Validity
            Not Before: Sep 17 13:33:26 2013 GMT
            Not After : Sep 15 13:33:26 2023 GMT
        Subject: C=IT, O=IGI, CN=load14
        Subject Public Key Info:
            Public Key Algorithm: rsaEncryption
                Public-Key: (2048 bit)
                Modulus:
                    00:9f:09:ae:65:66:a2:ce:fd:57:9c:3b:1c:a4:f8:
                    5a:bd:53:77:0f:27:c9:89:4a:00:89:11:be:06:73:
                    38:58:c4:2c:d0:20:49:c4:76:0a:02:cf:0d:e3:bb:
                    c9:eb:85:e8:18:5a:fa:dd:35:64:b1:8d:ef:57:69:
                    ed:17:94:59:80:b5:a8:8d:d1:98:4c:66:85:2f:53:
                    2e:e6:d2:9c:03:b3:c8:23:47:aa:8d:ec:31:d3:73:
                    8e:13:57:fc:fe:c1:fa:5d:a7:e7:43:c6:14:9b:f7:
                    02:f4:30:f9:9a:c1:a6:f2:f3:55:f4:9e:36:f6:c2:
                    31:c1:7b:d2:51:f2:18:c8:b6:83:d5:e3:2a:43:eb:
                    a6:43:c8:ea:99:c2:15:7f:08:fe:da:0b:83:51:c3:
                    07:f1:40:36:54:96:9d:cc:27:de:df:e6:b4:d4:d3:
                    ac:56:75:0f:48:ad:b4:9f:34:37:93:e4:23:81:b0:
                    d2:99:87:9b:3e:62:e0:2a:e4:ee:13:79:60:ec:c8:
                    32:80:c7:17:ba:7d:f7:ed:da:07:1e:c6:ed:f8:b0:
                    3a:d5:23:ea:c9:81:7d:2f:5c:75:3b:93:3d:bb:cc:
                    70:63:43:de:bd:e1:77:d6:58:ac:a9:ab:9d:91:22:
                    6e:fc:99:b5:3d:05:5a:67:2f:b9:e7:af:e7:db:2d:
                    b4:fd
                Exponent: 65537 (0x10001)
        X509v3 extensions:
            X509v3 Basic Constraints: critical
                CA:FALSE
            X509v3 Subject Key Identifier: 
                D1:F8:F7:B6:3D:D6:9C:DE:9C:4C:AB:2F:ED:8F:E3:6D:69:A1:61:F6
            X509v3 Key Usage: critical
                Digital Signature, Non Repudiation, Key Encipherment
            X509v3 Extended Key Usage: 
                TLS Web Server Authentication, TLS Web Client Authentication, Microsoft Server Gated Crypto, Netscape Server Gated Crypto, E-mail Protection
            X509v3 Authority Key Identifier: 
                keyid:91:77:36:7B:2E:B4:69:F3:27:EA:B7:F6:08:8B:4A:23:A2:11:49:C6

            X509v3 Subject Alternative Name: 
                email:andrea.ceccanti@cnaf.infn.it
    Signature Algorithm: sha1WithRSAEncryption
         41:cf:54:2f:7c:05:f4:41:54:80:66:92:aa:06:bc:f1:b7:d9:
         b9:3c:94:88:ea:cf:58:86:aa:db:dd:e6:76:45:41:47:0f:c9:
         54:73:5a:88:01:3b:a5:02:a6:9f:71:22:c0:5f:58:cf:8e:d9:
         ca:97:0d:32:f2:a6:21:26:e8:54:52:8c:71:e4:99:e7:3b:86:
         52:4e:ea:1e:27:db:42:4c:29:bf:50:50:44:83:ec:3e:82:f0:
         6a:ed:b5:1a:95:9a:a4:22:b4:75:21:8c:48:99:1b:3e:e4:35:
         08:24:9a:c6:ad:a1:34:c7:f4:9b:c9:6e:a8:20:90:bd:33:d6:
         e0:3c:9a:d3:53:9b:7e:17:18:9e:1e:47:4f:34:05:8e:4f:22:
         da:bf:8e:1d:03:30:8e:c1:6a:8c:01:ca:e6:6e:f6:aa:e0:94:
         ba:82:ad:70:ba:ef:0d:ae:49:d0:37:f5:4d:ef:3e:e5:ba:df:
         98:3f:bb:41:80:61:ea:b4:29:04:4b:3a:b1:43:69:ef:78:5f:
         27:53:12:97:62:4d:04:aa:e2:ee:d4:c5:f0:6d:56:2d:46:df:
         54:1e:8f:0c:26:c2:2d:c5:b0:c5:d8:f7:81:f3:3c:a2:ca:74:
         7b:9c:40:4e:cd:34:59:f1:21:45:3f:b3:77:e8:0f:4b:e1:fc:
         49:fe:ab:b2
-----BEGIN CERTIFICATE-----
MIIDnzCCAoegAwIBAgIBNDANBgkqhkiG9w0BAQUFADAtMQswCQYDVQQGEwJJVDEM
MAoGA1UECgwDSUdJMRAwDgYDVQQDDAdUZXN0IENBMB4XDTEzMDkxNzEzMzMyNloX
DTIzMDkxNTEzMzMyNlowLDELMAkGA1UEBhMCSVQxDDAKBgNVBAoTA0lHSTEPMA0G
A1UEAxMGbG9hZDE0MIIBIjANBgkqhkiG9w0BAQEFAAOCAQ8AMIIBCgKCAQEAnwmu
ZWaizv1XnDscpPhavVN3DyfJiUoAiRG+BnM4WMQs0CBJxHYKAs8N47vJ64XoGFr6
3TVksY3vV2ntF5RZgLWojdGYTGaFL1Mu5tKcA7PII0eqjewx03OOE1f8/sH6Xafn
Q8YUm/cC9DD5msGm8vNV9J429sIxwXvSUfIYyLaD1eMqQ+umQ8jqmcIVfwj+2guD
UcMH8UA2VJadzCfe3+a01NOsVnUPSK20nzQ3k+QjgbDSmYebPmLgKuTuE3lg7Mgy
gMcXun337doHHsbt+LA61SPqyYF9L1x1O5M9u8xwY0PeveF31lisqaudkSJu/Jm1
PQVaZy+556/n2y20/QIDAQABo4HKMIHHMAwGA1UdEwEB/wQCMAAwHQYDVR0OBBYE
FNH497Y91pzenEyrL+2P421poWH2MA4GA1UdDwEB/wQEAwIF4DA+BgNVHSUENzA1
BggrBgEFBQcDAQYIKwYBBQUHAwIGCisGAQQBgjcKAwMGCWCGSAGG+EIEAQYIKwYB
BQUHAwQwHwYDVR0jBBgwFoAUkXc2ey60afMn6rf2CItKI6IRScYwJwYDVR0RBCAw
HoEcYW5kcmVhLmNlY2NhbnRpQGNuYWYuaW5mbi5pdDANBgkqhkiG9w0BAQUFAAOC
AQEAQc9UL3wF9EFUgGaSqga88bfZuTyUiOrPWIaq293mdkVBRw/JVHNaiAE7pQKm
n3EiwF9Yz47ZypcNMvKmISboVFKMceSZ5zuGUk7qHifbQkwpv1BQRIPsPoLwau21
GpWapCK0dSGMSJkbPuQ1CCSaxq2hNMf0m8luqCCQvTPW4Dya01ObfhcYnh5HTzQF
jk8i2r+OHQMwjsFqjAHK5m72quCUuoKtcLrvDa5J0Df1Te8+5brfmD+7QYBh6rQp
BEs6sUNp73hfJ1MSl2JNBKri7tTF8G1WLUbfVB6PDCbCLcWwxdj3gfM8osp0e5xA
Ts00WfEhRT+zd+gPS+H8Sf6rsg==
-----END CERTIFICATE-----
