Certificate:
    Data:
        Version: 3 (0x2)
        Serial Number: 45 (0x2d)
    Signature Algorithm: sha1WithRSAEncryption
        Issuer: C=IT, O=IGI, CN=Test CA
        Validity
            Not Before: Sep 17 13:33:18 2013 GMT
            Not After : Sep 15 13:33:18 2023 GMT
        Subject: C=IT, O=IGI, CN=load7
        Subject Public Key Info:
            Public Key Algorithm: rsaEncryption
                Public-Key: (2048 bit)
                Modulus:
                    00:b9:f6:06:d2:c1:b3:40:5d:04:3a:db:f6:6b:88:
                    ae:be:3e:79:17:e5:aa:9c:e6:6f:77:28:23:c1:40:
                    cb:2a:1c:47:dc:93:d1:f8:55:7a:3d:7a:32:04:ab:
                    63:6c:9d:6d:72:f3:fc:e6:de:6a:16:b8:77:df:72:
                    64:f5:bd:1c:23:a2:55:b1:b4:39:97:f3:94:1b:58:
                    8b:86:0f:d4:69:d8:47:22:b2:5b:1c:52:3c:e8:36:
                    a9:bb:5d:15:be:fc:fb:e6:ae:c2:a7:eb:c4:cd:33:
                    be:44:ec:e8:5d:78:5e:d4:94:a8:41:b1:10:15:97:
                    2b:c9:d8:32:96:ea:0d:6b:81:d6:b9:60:28:07:35:
                    bb:43:0f:cf:f8:a0:c1:36:8f:04:f4:97:44:a1:45:
                    af:8a:0d:b8:94:72:f7:6e:62:ca:e4:00:d2:15:43:
                    18:b2:c5:61:2d:87:9c:ec:3a:bc:aa:a4:3e:f6:fa:
                    1c:86:35:bb:e4:79:4d:77:70:43:76:36:b8:d2:fb:
                    6b:b1:f9:da:26:df:c8:70:cd:05:85:1b:1d:82:29:
                    6d:71:df:58:0b:4a:68:4e:f7:77:35:96:34:57:a0:
                    e4:28:7c:e5:3b:2f:69:1f:99:65:54:ee:85:53:db:
                    a6:32:5d:14:b3:2d:fd:78:8a:a9:84:b7:90:b1:13:
                    e4:29
                Exponent: 65537 (0x10001)
        X509v3 extensions:
            X509v3 Basic Constraints: critical
                CA:FALSE
            X509v3 Subject Key Identifier: 
                AD:6E:9E:95:73:00:25:5E:F3:CA:E0:95:21:C1:4F:38:36:14:BF:0D
            X509v3 Key Usage: critical
                Digital Signature, Non Repudiation, Key Encipherment
            X509v3 Extended Key Usage: 
                TLS Web Server Authentication, TLS Web Client Authentication, Microsoft Server Gated Crypto, Netscape Server Gated Crypto, E-mail Protection
            X509v3 Authority Key Identifier: 
                keyid:91:77:36:7B:2E:B4:69:F3:27:EA:B7:F6:08:8B:4A:23:A2:11:49:C6

            X509v3 Subject Alternative Name: 
                email:andrea.ceccanti@cnaf.infn.it
    Signature Algorithm: sha1WithRSAEncryption
         35:e8:02:7f:5c:71:16:95:00:a9:68:ca:b2:10:f4:d4:be:77:
         2b:6a:6e:98:28:3d:9c:81:82:55:7c:17:e3:e2:7c:23:aa:00:
         55:96:a0:ef:76:71:76:d9:16:91:4a:67:ad:2e:e3:8e:9c:5c:
         4b:b7:47:2a:d4:d0:56:26:c9:41:b3:63:ae:f2:27:d6:c5:68:
         08:4e:6c:f6:86:19:a4:3f:ee:fd:38:0d:1f:77:74:dc:78:35:
         9b:bf:37:7d:c3:53:35:c2:62:2b:fb:1d:2e:fa:ad:69:ab:e7:
         98:05:e3:dc:cb:cf:33:ee:6b:e5:98:c8:88:e0:af:8d:fa:f7:
         e8:09:6e:7f:2f:12:e3:c3:54:3a:42:31:c6:38:c7:1c:5f:08:
         2a:01:9f:70:03:25:be:25:71:28:1d:8c:34:01:1e:9e:66:dc:
         df:1a:60:e1:d8:e6:71:6c:48:57:23:05:f5:e7:35:90:53:1a:
         a3:7d:a6:18:bf:a1:f4:ba:2c:a5:a8:8d:25:2a:59:90:08:76:
         a8:2d:02:02:43:7d:09:3d:bf:19:bf:06:a8:4d:2a:57:11:29:
         53:99:12:b7:60:36:28:b7:55:3e:51:63:7f:87:1d:e0:19:3b:
         f0:ef:bd:58:af:1b:28:c8:f0:c9:3e:a4:d5:8f:6f:30:90:8f:
         9b:05:28:72
-----BEGIN CERTIFICATE-----
MIIDnjCCAoagAwIBAgIBLTANBgkqhkiG9w0BAQUFADAtMQswCQYDVQQGEwJJVDEM
MAoGA1UECgwDSUdJMRAwDgYDVQQDDAdUZXN0IENBMB4XDTEzMDkxNzEzMzMxOFoX
DTIzMDkxNTEzMzMxOFowKzELMAkGA1UEBhMCSVQxDDAKBgNVBAoTA0lHSTEOMAwG
A1UEAxMFbG9hZDcwggEiMA0GCSqGSIb3DQEBAQUAA4IBDwAwggEKAoIBAQC59gbS
wbNAXQQ62/ZriK6+PnkX5aqc5m93KCPBQMsqHEfck9H4VXo9ejIEq2NsnW1y8/zm
3moWuHffcmT1vRwjolWxtDmX85QbWIuGD9Rp2EcislscUjzoNqm7XRW+/PvmrsKn
68TNM75E7OhdeF7UlKhBsRAVlyvJ2DKW6g1rgda5YCgHNbtDD8/4oME2jwT0l0Sh
Ra+KDbiUcvduYsrkANIVQxiyxWEth5zsOryqpD72+hyGNbvkeU13cEN2NrjS+2ux
+dom38hwzQWFGx2CKW1x31gLSmhO93c1ljRXoOQofOU7L2kfmWVU7oVT26YyXRSz
Lf14iqmEt5CxE+QpAgMBAAGjgcowgccwDAYDVR0TAQH/BAIwADAdBgNVHQ4EFgQU
rW6elXMAJV7zyuCVIcFPODYUvw0wDgYDVR0PAQH/BAQDAgXgMD4GA1UdJQQ3MDUG
CCsGAQUFBwMBBggrBgEFBQcDAgYKKwYBBAGCNwoDAwYJYIZIAYb4QgQBBggrBgEF
BQcDBDAfBgNVHSMEGDAWgBSRdzZ7LrRp8yfqt/YIi0ojohFJxjAnBgNVHREEIDAe
gRxhbmRyZWEuY2VjY2FudGlAY25hZi5pbmZuLml0MA0GCSqGSIb3DQEBBQUAA4IB
AQA16AJ/XHEWlQCpaMqyEPTUvncram6YKD2cgYJVfBfj4nwjqgBVlqDvdnF22RaR
SmetLuOOnFxLt0cq1NBWJslBs2Ou8ifWxWgITmz2hhmkP+79OA0fd3TceDWbvzd9
w1M1wmIr+x0u+q1pq+eYBePcy88z7mvlmMiI4K+N+vfoCW5/LxLjw1Q6QjHGOMcc
XwgqAZ9wAyW+JXEoHYw0AR6eZtzfGmDh2OZxbEhXIwX15zWQUxqjfaYYv6H0uiyl
qI0lKlmQCHaoLQICQ30JPb8ZvwaoTSpXESlTmRK3YDYot1U+UWN/hx3gGTvw771Y
rxsoyPDJPqTVj28wkI+bBShy
-----END CERTIFICATE-----
