Certificate:
    Data:
        Version: 3 (0x2)
        Serial Number: 46 (0x2e)
    Signature Algorithm: sha1WithRSAEncryption
        Issuer: C=IT, O=IGI, CN=Test CA
        Validity
            Not Before: Sep 17 13:33:19 2013 GMT
            Not After : Sep 15 13:33:19 2023 GMT
        Subject: C=IT, O=IGI, CN=load8
        Subject Public Key Info:
            Public Key Algorithm: rsaEncryption
                Public-Key: (2048 bit)
                Modulus:
                    00:ad:e9:86:05:23:24:dc:a6:37:23:58:b5:69:3c:
                    d4:79:bb:7e:f4:29:ac:96:92:df:d8:42:00:8a:50:
                    0f:0d:3a:53:3e:19:ec:f0:07:03:e0:8e:ea:a6:15:
                    f3:bc:b6:76:f9:88:bf:da:5c:9b:62:8a:77:e8:33:
                    be:25:15:8a:92:39:9d:2b:48:d1:b5:41:de:a5:af:
                    af:02:ea:97:40:11:50:a7:e7:4b:ec:e0:44:0d:de:
                    9e:e6:7c:ee:84:4f:57:04:c0:95:4f:10:ca:4f:67:
                    1b:fc:6d:05:17:e6:9b:42:d7:ce:34:b0:25:07:b6:
                    42:cd:13:60:c1:55:3c:8b:bc:94:ee:41:9b:96:7f:
                    80:7d:f1:ac:36:6c:7f:34:e3:77:b7:4f:fb:fd:8c:
                    6f:ab:bd:c6:e5:40:6c:d6:ff:8d:be:bf:00:40:05:
                    6f:aa:de:21:93:eb:8a:26:9a:0d:8c:a4:93:9d:ce:
                    3d:a0:c3:99:58:d6:6c:77:05:23:82:33:3c:d7:c4:
                    49:12:34:35:10:66:25:93:3e:f6:5b:03:76:7b:b1:
                    e9:a7:73:c2:44:a8:ff:64:f4:45:d6:69:f6:64:ff:
                    7f:5c:51:59:ee:35:a0:fd:5d:0d:ec:19:03:16:eb:
                    f8:43:4e:f7:80:e9:14:fd:76:ea:cf:8d:bf:d8:27:
                    45:69
                Exponent: 65537 (0x10001)
        X509v3 extensions:
            X509v3 Basic Constraints: critical
                CA:FALSE
            X509v3 Subject Key Identifier: 
                56:79:44:F8:69:02:56:2C:63:A2:FD:F9:97:64:C8:1C:8B:93:4F:C6
            X509v3 Key Usage: critical
                Digital Signature, Non Repudiation, Key Encipherment
            X509v3 Extended Key Usage: 
                TLS Web Server Authentication, TLS Web Client Authentication, Microsoft Server Gated Crypto, Netscape Server Gated Crypto, E-mail Protection
            X509v3 Authority Key Identifier: 
                keyid:91:77:36:7B:2E:B4:69:F3:27:EA:B7:F6:08:8B:4A:23:A2:11:49:C6

            X509v3 Subject Alternative Name: 
                email:andrea.ceccanti@cnaf.infn.it
    Signature Algorithm: sha1WithRSAEncryption
         d6:34:40:24:18:e5:74:f4:01:ec:eb:0b:c9:99:2f:3f:1a:82:
         88:d3:e5:10:fd:7b:37:3b:1a:e9:d2:82:73:97:fe:b2:cb:e2:
         db:83:1e:3f:e3:aa:7a:10:13:60:f7:8b:3b:6c:77:c0:ee:7b:
         78:76:5a:fe:a2:21:93:6a:34:90:e6:49:87:80:96:6f:64:b5:
         02:43:95:1a:35:1d:b7:43:c6:58:4e:ec:31:f5:16:78:6a:4d:
         b0:2c:d0:a1:60:95:0c:22:84:29:fd:b2:ef:7c:41:8c:23:45:
         e2:a7:a2:04:55:ba:b3:7c:c1:b9:ca:44:f9:90:15:8e:70:fe:
         07:1b:e6:d9:f2:ca:49:dd:79:5a:12:7e:9e:73:7c:21:8f:fd:
         b1:7f:b1:24:99:5e:ea:86:9e:61:79:94:c7:3f:10:17:5e:56:
         aa:b4:b5:23:fb:b5:84:29:29:35:e5:b8:2e:9d:12:45:c6:b1:
         65:ca:37:61:50:75:97:42:48:38:6a:a7:68:53:d6:8e:6f:96:
         7d:2a:da:28:0b:15:a9:17:55:51:99:25:ae:10:21:70:1d:37:
         6a:9c:56:86:91:fb:d4:bb:4f:60:22:51:1e:da:3a:0f:d5:bc:
         cb:2f:4b:c4:88:50:5f:a8:25:55:ae:9a:43:f1:37:50:24:c7:
         3a:41:f0:1d
-----BEGIN CERTIFICATE-----
MIIDnjCCAoagAwIBAgIBLjANBgkqhkiG9w0BAQUFADAtMQswCQYDVQQGEwJJVDEM
MAoGA1UECgwDSUdJMRAwDgYDVQQDDAdUZXN0IENBMB4XDTEzMDkxNzEzMzMxOVoX
DTIzMDkxNTEzMzMxOVowKzELMAkGA1UEBhMCSVQxDDAKBgNVBAoTA0lHSTEOMAwG
A1UEAxMFbG9hZDgwggEiMA0GCSqGSIb3DQEBAQUAA4IBDwAwggEKAoIBAQCt6YYF
IyTcpjcjWLVpPNR5u370KayWkt/YQgCKUA8NOlM+GezwBwPgjuqmFfO8tnb5iL/a
XJtiinfoM74lFYqSOZ0rSNG1Qd6lr68C6pdAEVCn50vs4EQN3p7mfO6ET1cEwJVP
EMpPZxv8bQUX5ptC1840sCUHtkLNE2DBVTyLvJTuQZuWf4B98aw2bH8043e3T/v9
jG+rvcblQGzW/42+vwBABW+q3iGT64ommg2MpJOdzj2gw5lY1mx3BSOCMzzXxEkS
NDUQZiWTPvZbA3Z7semnc8JEqP9k9EXWafZk/39cUVnuNaD9XQ3sGQMW6/hDTveA
6RT9durPjb/YJ0VpAgMBAAGjgcowgccwDAYDVR0TAQH/BAIwADAdBgNVHQ4EFgQU
VnlE+GkCVixjov35l2TIHIuTT8YwDgYDVR0PAQH/BAQDAgXgMD4GA1UdJQQ3MDUG
CCsGAQUFBwMBBggrBgEFBQcDAgYKKwYBBAGCNwoDAwYJYIZIAYb4QgQBBggrBgEF
BQcDBDAfBgNVHSMEGDAWgBSRdzZ7LrRp8yfqt/YIi0ojohFJxjAnBgNVHREEIDAe
gRxhbmRyZWEuY2VjY2FudGlAY25hZi5pbmZuLml0MA0GCSqGSIb3DQEBBQUAA4IB
AQDWNEAkGOV09AHs6wvJmS8/GoKI0+UQ/Xs3Oxrp0oJzl/6yy+Lbgx4/46p6EBNg
94s7bHfA7nt4dlr+oiGTajSQ5kmHgJZvZLUCQ5UaNR23Q8ZYTuwx9RZ4ak2wLNCh
YJUMIoQp/bLvfEGMI0Xip6IEVbqzfMG5ykT5kBWOcP4HG+bZ8spJ3XlaEn6ec3wh
j/2xf7EkmV7qhp5heZTHPxAXXlaqtLUj+7WEKSk15bgunRJFxrFlyjdhUHWXQkg4
aqdoU9aOb5Z9KtooCxWpF1VRmSWuECFwHTdqnFaGkfvUu09gIlEe2joP1bzLL0vE
iFBfqCVVrppD8TdQJMc6QfAd
-----END CERTIFICATE-----
