Certificate:
    Data:
        Version: 3 (0x2)
        Serial Number: 51 (0x33)
    Signature Algorithm: sha1WithRSAEncryption
        Issuer: C=IT, O=IGI, CN=Test CA
        Validity
            Not Before: Sep 17 13:33:25 2013 GMT
            Not After : Sep 15 13:33:25 2023 GMT
        Subject: C=IT, O=IGI, CN=load13
        Subject Public Key Info:
            Public Key Algorithm: rsaEncryption
                Public-Key: (2048 bit)
                Modulus:
                    00:b5:ca:73:18:4d:6c:ff:3a:3d:14:60:4a:b3:1b:
                    b3:a6:3b:5b:91:18:03:12:7e:0c:7d:3b:b3:22:2e:
                    ff:a7:67:46:a0:38:4f:f7:c9:15:57:a3:fd:a5:92:
                    b8:dd:58:c1:e8:8d:55:6b:01:4b:fc:10:19:d4:df:
                    2e:ad:7d:41:78:04:1f:13:0a:bc:be:43:0c:31:95:
                    c0:f9:20:12:0f:34:b1:24:7c:ed:90:0c:19:97:ad:
                    71:de:00:cf:eb:f3:c1:86:28:bd:95:09:c3:4e:b0:
                    87:42:af:36:b2:97:ec:f7:b6:24:41:d6:35:0c:f7:
                    4e:a0:77:75:67:00:fa:28:41:03:ff:ff:1e:0a:ab:
                    ac:4b:2a:18:66:89:aa:12:d0:7b:70:53:a6:b4:ee:
                    ff:5d:40:6a:62:f7:c9:b0:84:93:c7:f0:35:d1:bf:
                    21:a8:d9:3c:8a:06:80:13:28:c1:74:65:cb:4b:ae:
                    87:9c:96:f5:93:08:ef:ba:29:f1:82:89:03:8f:57:
                    65:80:97:f1:70:db:06:65:36:d0:5d:72:cf:ff:4e:
                    f6:bb:56:62:e7:23:12:6b:ff:43:d4:59:13:02:5b:
                    ed:21:46:87:97:72:62:0e:0d:12:01:83:a1:6a:15:
                    a8:e5:76:c4:5f:9f:8e:f0:c3:21:7d:be:5a:42:42:
                    ed:b7
                Exponent: 65537 (0x10001)
        X509v3 extensions:
            X509v3 Basic Constraints: critical
                CA:FALSE
            X509v3 Subject Key Identifier: 
                3B:CF:2A:FB:8F:9C:5C:AB:D8:73:8E:B3:65:16:A6:FC:98:FC:ED:B9
            X509v3 Key Usage: critical
                Digital Signature, Non Repudiation, Key Encipherment
            X509v3 Extended Key Usage: 
                TLS Web Server Authentication, TLS Web Client Authentication, Microsoft Server Gated Crypto, Netscape Server Gated Crypto, E-mail Protection
            X509v3 Authority Key Identifier: 
                keyid:91:77:36:7B:2E:B4:69:F3:27:EA:B7:F6:08:8B:4A:23:A2:11:49:C6

            X509v3 Subject Alternative Name: 
                email:andrea.ceccanti@cnaf.infn.it
    Signature Algorithm: sha1WithRSAEncryption
         7c:6e:5e:e6:e8:d8:7f:3f:5f:e9:da:cb:47:ce:64:8e:3d:8e:
         79:06:a2:24:a0:30:6d:8d:ab:6e:97:f7:5a:93:f0:26:73:bc:
         e7:58:16:eb:49:d9:0d:2a:29:58:b6:9f:07:c4:4e:7a:fe:6b:
         7a:02:1f:50:b5:bd:fb:51:6b:ca:fe:00:e6:85:d7:7b:33:e2:
         12:4a:74:ab:49:99:93:0d:7b:60:68:72:42:ca:ab:1b:97:ae:
         5c:5a:ef:e5:e7:0e:18:7b:28:a3:79:c5:11:fb:94:33:e2:0e:
         56:f6:99:77:ea:af:25:88:d1:9d:be:6d:c4:e3:4f:6b:c4:58:
         ed:fa:ec:ef:4b:02:31:11:52:04:d5:ff:d8:8d:7a:37:f0:e9:
         2e:10:47:2b:75:5f:88:94:52:1c:23:c8:17:6e:b0:41:f1:64:
         f8:c1:c6:36:d6:0a:a7:de:a2:53:6e:1f:7b:93:52:75:9d:bb:
         50:aa:20:d5:56:62:64:24:e3:a6:cc:e6:ac:a3:77:a3:15:48:
         8a:95:9b:66:6d:25:5e:e4:ba:fb:3c:7d:50:15:b6:a3:9f:7a:
         bc:fc:37:1d:f3:97:53:1c:f5:e9:ba:2a:13:db:23:ee:0a:61:
         3a:98:a5:48:b3:83:76:63:b7:b4:ed:40:bc:01:5b:f9:ef:aa:
         c7:df:83:17
-----BEGIN CERTIFICATE-----
MIIDnzCCAoegAwIBAgIBMzANBgkqhkiG9w0BAQUFADAtMQswCQYDVQQGEwJJVDEM
MAoGA1UECgwDSUdJMRAwDgYDVQQDDAdUZXN0IENBMB4XDTEzMDkxNzEzMzMyNVoX
DTIzMDkxNTEzMzMyNVowLDELMAkGA1UEBhMCSVQxDDAKBgNVBAoTA0lHSTEPMA0G
A1UEAxMGbG9hZDEzMIIBIjANBgkqhkiG9w0BAQEFAAOCAQ8AMIIBCgKCAQEAtcpz
GE1s/zo9FGBKsxuzpjtbkRgDEn4MfTuzIi7/p2dGoDhP98kVV6P9pZK43VjB6I1V
awFL/BAZ1N8urX1BeAQfEwq8vkMMMZXA+SASDzSxJHztkAwZl61x3gDP6/PBhii9
lQnDTrCHQq82spfs97YkQdY1DPdOoHd1ZwD6KEED//8eCqusSyoYZomqEtB7cFOm
tO7/XUBqYvfJsISTx/A10b8hqNk8igaAEyjBdGXLS66HnJb1kwjvuinxgokDj1dl
gJfxcNsGZTbQXXLP/072u1Zi5yMSa/9D1FkTAlvtIUaHl3JiDg0SAYOhahWo5XbE
X5+O8MMhfb5aQkLttwIDAQABo4HKMIHHMAwGA1UdEwEB/wQCMAAwHQYDVR0OBBYE
FDvPKvuPnFyr2HOOs2UWpvyY/O25MA4GA1UdDwEB/wQEAwIF4DA+BgNVHSUENzA1
BggrBgEFBQcDAQYIKwYBBQUHAwIGCisGAQQBgjcKAwMGCWCGSAGG+EIEAQYIKwYB
BQUHAwQwHwYDVR0jBBgwFoAUkXc2ey60afMn6rf2CItKI6IRScYwJwYDVR0RBCAw
HoEcYW5kcmVhLmNlY2NhbnRpQGNuYWYuaW5mbi5pdDANBgkqhkiG9w0BAQUFAAOC
AQEAfG5e5ujYfz9f6drLR85kjj2OeQaiJKAwbY2rbpf3WpPwJnO851gW60nZDSop
WLafB8ROev5regIfULW9+1Fryv4A5oXXezPiEkp0q0mZkw17YGhyQsqrG5euXFrv
5ecOGHsoo3nFEfuUM+IOVvaZd+qvJYjRnb5txONPa8RY7frs70sCMRFSBNX/2I16
N/DpLhBHK3VfiJRSHCPIF26wQfFk+MHGNtYKp96iU24fe5NSdZ27UKog1VZiZCTj
pszmrKN3oxVIipWbZm0lXuS6+zx9UBW2o596vPw3HfOXUxz16boqE9sj7gphOpil
SLODdmO3tO1AvAFb+e+qx9+DFw==
-----END CERTIFICATE-----
