Certificate:
    Data:
        Version: 3 (0x2)
        Serial Number: 42 (0x2a)
    Signature Algorithm: sha1WithRSAEncryption
        Issuer: C=IT, O=IGI, CN=Test CA
        Validity
            Not Before: Sep 17 13:33:16 2013 GMT
            Not After : Sep 15 13:33:16 2023 GMT
        Subject: C=IT, O=IGI, CN=load4
        Subject Public Key Info:
            Public Key Algorithm: rsaEncryption
                Public-Key: (2048 bit)
                Modulus:
                    00:e7:ca:98:91:d8:c6:94:f2:9c:39:35:bd:52:37:
                    28:85:dd:5a:b5:bd:e6:b9:81:a6:b7:67:76:37:b7:
                    4f:73:91:9f:ea:82:dd:26:29:16:63:d8:d9:56:d1:
                    1c:11:77:0c:ad:d4:b3:d1:ac:fb:f4:90:5e:14:6d:
                    c0:2f:f0:6f:45:cd:09:82:7d:4f:2b:fb:3d:30:89:
                    fc:ad:39:54:99:cf:ce:a0:47:c9:c9:8b:b6:9b:3d:
                    0d:cd:0c:5a:d6:ca:c0:bb:12:09:f1:2f:dc:ae:b8:
                    ff:f5:7b:17:ca:10:00:d7:c5:db:e8:b8:51:f5:2a:
                    96:da:19:13:5d:29:2e:43:28:08:e9:88:39:63:03:
                    e8:dc:5d:7f:e6:40:88:b0:01:3d:a7:c4:e9:d9:29:
                    b6:ad:08:e2:a4:c1:30:4a:91:56:e9:5e:3b:18:f3:
                    4a:3c:ef:a9:f1:e4:a5:63:03:b9:08:bd:8b:6a:68:
                    13:c0:eb:db:9c:a3:74:93:b1:66:1a:fb:50:26:34:
                    61:08:89:3b:32:59:cf:0c:e4:19:b2:a4:8e:5a:79:
                    c6:67:b9:c0:3d:1d:99:c6:73:d5:ec:e6:23:75:ab:
                    fc:dd:7d:3c:ba:2a:e6:eb:44:64:f8:d4:09:3d:f4:
                    97:03:05:9b:8a:33:68:d7:c5:bf:09:97:18:88:35:
                    22:63
                Exponent: 65537 (0x10001)
        X509v3 extensions:
            X509v3 Basic Constraints: critical
                CA:FALSE
            X509v3 Subject Key Identifier: 
                2F:E4:5B:38:83:D8:08:2A:E9:AD:0E:2B:5A:B4:2D:53:22:DE:98:18
            X509v3 Key Usage: critical
                Digital Signature, Non Repudiation, Key Encipherment
            X509v3 Extended Key Usage: 
                TLS Web Server Authentication, TLS Web Client Authentication, Microsoft Server Gated Crypto, Netscape Server Gated Crypto, E-mail Protection
            X509v3 Authority Key Identifier: 
                keyid:91:77:36:7B:2E:B4:69:F3:27:EA:B7:F6:08:8B:4A:23:A2:11:49:C6

            X509v3 Subject Alternative Name: 
                email:andrea.ceccanti@cnaf.infn.it
    Signature Algorithm: sha1WithRSAEncryption
         81:7a:d4:f1:8b:cc:4d:eb:ca:6b:dc:7d:73:4e:cf:2b:fd:b4:
         f1:67:8e:eb:35:c5:c5:0f:ec:53:d7:ad:85:f4:36:40:73:1e:
         36:d0:24:7f:0b:d1:54:5f:13:99:63:24:db:ed:91:c4:9a:f0:
         40:00:de:11:ae:9d:7b:1f:b0:ba:3f:5d:cf:56:22:0a:a7:d3:
         b8:33:e5:65:f5:34:3e:6d:33:16:3e:0a:45:ad:e2:f2:b9:b2:
         fd:4b:65:13:4f:95:25:d3:26:4d:57:d1:6a:bf:19:88:c9:8a:
         33:27:a2:a2:9f:04:fb:a3:36:b8:3a:ac:e6:3f:a9:8f:d9:47:
         33:93:d6:4f:a2:df:ef:a4:71:74:50:81:bd:f2:8b:0b:3e:c0:
         ce:df:18:b5:2b:9c:d7:7a:c3:24:a7:bc:54:80:d6:b8:0f:c1:
         ec:1b:16:e4:6f:4b:eb:e9:a4:26:15:54:10:ea:cc:b5:67:62:
         f9:cb:06:54:ae:66:92:68:59:cc:9d:2f:7c:3a:21:34:bd:25:
         10:48:a4:de:1a:72:28:b4:83:54:46:82:f7:a9:44:39:d7:34:
         e0:c8:62:15:e0:6f:b1:40:75:42:8a:ab:25:ba:bf:fe:c5:90:
         bd:4a:d6:47:dd:0f:d8:0e:e9:4e:24:8c:a3:bd:70:88:9e:a9:
         93:c9:5c:4c
-----BEGIN CERTIFICATE-----
MIIDnjCCAoagAwIBAgIBKjANBgkqhkiG9w0BAQUFADAtMQswCQYDVQQGEwJJVDEM
MAoGA1UECgwDSUdJMRAwDgYDVQQDDAdUZXN0IENBMB4XDTEzMDkxNzEzMzMxNloX
DTIzMDkxNTEzMzMxNlowKzELMAkGA1UEBhMCSVQxDDAKBgNVBAoTA0lHSTEOMAwG
A1UEAxMFbG9hZDQwggEiMA0GCSqGSIb3DQEBAQUAA4IBDwAwggEKAoIBAQDnypiR
2MaU8pw5Nb1SNyiF3Vq1vea5gaa3Z3Y3t09zkZ/qgt0mKRZj2NlW0RwRdwyt1LPR
rPv0kF4UbcAv8G9FzQmCfU8r+z0wifytOVSZz86gR8nJi7abPQ3NDFrWysC7Egnx
L9yuuP/1exfKEADXxdvouFH1KpbaGRNdKS5DKAjpiDljA+jcXX/mQIiwAT2nxOnZ
KbatCOKkwTBKkVbpXjsY80o876nx5KVjA7kIvYtqaBPA69uco3STsWYa+1AmNGEI
iTsyWc8M5BmypI5aecZnucA9HZnGc9Xs5iN1q/zdfTy6KubrRGT41Ak99JcDBZuK
M2jXxb8JlxiINSJjAgMBAAGjgcowgccwDAYDVR0TAQH/BAIwADAdBgNVHQ4EFgQU
L+RbOIPYCCrprQ4rWrQtUyLemBgwDgYDVR0PAQH/BAQDAgXgMD4GA1UdJQQ3MDUG
CCsGAQUFBwMBBggrBgEFBQcDAgYKKwYBBAGCNwoDAwYJYIZIAYb4QgQBBggrBgEF
BQcDBDAfBgNVHSMEGDAWgBSRdzZ7LrRp8yfqt/YIi0ojohFJxjAnBgNVHREEIDAe
gRxhbmRyZWEuY2VjY2FudGlAY25hZi5pbmZuLml0MA0GCSqGSIb3DQEBBQUAA4IB
AQCBetTxi8xN68pr3H1zTs8r/bTxZ47rNcXFD+xT162F9DZAcx420CR/C9FUXxOZ
YyTb7ZHEmvBAAN4Rrp17H7C6P13PViIKp9O4M+Vl9TQ+bTMWPgpFreLyubL9S2UT
T5Ul0yZNV9FqvxmIyYozJ6KinwT7oza4OqzmP6mP2Uczk9ZPot/vpHF0UIG98osL
PsDO3xi1K5zXesMkp7xUgNa4D8HsGxbkb0vr6aQmFVQQ6sy1Z2L5ywZUrmaSaFnM
nS98OiE0vSUQSKTeGnIotINURoL3qUQ51zTgyGIV4G+xQHVCiqslur/+xZC9StZH
3Q/YDulOJIyjvXCInqmTyVxM
-----END CERTIFICATE-----
