Certificate:
    Data:
        Version: 3 (0x2)
        Serial Number: 44 (0x2c)
    Signature Algorithm: sha1WithRSAEncryption
        Issuer: C=IT, O=IGI, CN=Test CA
        Validity
            Not Before: Sep 17 13:33:17 2013 GMT
            Not After : Sep 15 13:33:17 2023 GMT
        Subject: C=IT, O=IGI, CN=load6
        Subject Public Key Info:
            Public Key Algorithm: rsaEncryption
                Public-Key: (2048 bit)
                Modulus:
                    00:a8:80:32:63:b4:b4:d2:67:27:df:88:57:76:57:
                    48:72:2c:55:ce:9c:64:15:4e:95:5b:bf:7a:f4:c1:
                    1b:3d:95:21:78:11:bd:38:4b:1c:bd:a8:83:f2:ae:
                    0d:3c:eb:bf:62:68:40:10:e6:63:d2:2b:b8:98:bf:
                    a0:68:1b:69:84:d5:e6:51:a6:27:0c:d9:6b:42:7d:
                    8c:d2:6e:16:77:cf:18:77:2f:29:32:fe:e2:6a:53:
                    f7:86:0a:fe:0a:02:04:a3:a0:ce:ff:27:f1:3c:8b:
                    48:24:1d:a4:c9:e5:6d:93:79:5a:b7:3a:6d:f5:97:
                    67:03:bc:9a:fe:4c:d1:4c:54:67:21:f9:d2:3f:eb:
                    9e:bc:7d:1f:cd:a2:ae:e0:c5:b9:2c:75:cd:a2:8b:
                    ae:59:35:37:38:08:09:2f:48:30:d3:40:50:7d:d0:
                    36:55:9c:c1:f8:4a:ce:e6:65:8c:fa:ff:20:4f:7b:
                    f7:96:76:67:3b:0a:eb:26:5b:d5:89:89:73:14:c2:
                    5c:4f:39:e3:02:57:fa:a4:5a:72:6d:f9:34:10:25:
                    c4:2b:6a:c6:fb:3c:e6:cf:5e:90:31:25:43:3a:91:
                    3e:77:eb:7e:31:c7:89:f8:25:44:51:0b:c5:03:34:
                    47:c9:8b:1e:a2:5b:47:ee:45:86:64:b6:e6:2f:f8:
                    8c:c1
                Exponent: 65537 (0x10001)
        X509v3 extensions:
            X509v3 Basic Constraints: critical
                CA:FALSE
            X509v3 Subject Key Identifier: 
                65:D4:DD:13:AE:A2:62:73:10:4B:16:04:5C:91:17:89:55:1B:97:A7
            X509v3 Key Usage: critical
                Digital Signature, Non Repudiation, Key Encipherment
            X509v3 Extended Key Usage: 
                TLS Web Server Authentication, TLS Web Client Authentication, Microsoft Server Gated Crypto, Netscape Server Gated Crypto, E-mail Protection
            X509v3 Authority Key Identifier: 
                keyid:91:77:36:7B:2E:B4:69:F3:27:EA:B7:F6:08:8B:4A:23:A2:11:49:C6

            X509v3 Subject Alternative Name: 
                email:andrea.ceccanti@cnaf.infn.it
    Signature Algorithm: sha1WithRSAEncryption
         97:c6:ed:ed:d9:84:ce:90:7f:7a:b4:64:f5:3a:21:ba:13:a8:
         12:ed:39:32:37:9f:65:40:10:39:d4:35:01:60:d2:68:31:fd:
         24:c0:4e:94:99:cb:fb:57:b5:11:7f:12:96:31:61:d9:78:7e:
         36:ad:46:0e:d6:cd:1f:c6:a7:73:9b:cb:9f:bb:25:f9:ff:ae:
         62:1f:8b:39:41:35:35:ab:a9:e4:9b:18:0e:79:fd:0d:12:b3:
         8d:13:25:9e:b8:45:21:73:3e:f1:b1:eb:3d:97:be:a5:c6:7e:
         f7:b6:7b:5e:b3:0f:33:5d:e6:f9:e0:ff:41:ab:e3:76:f2:d6:
         b5:fc:53:46:9c:82:ef:39:f6:f9:30:d6:4a:61:dd:ce:b3:ab:
         72:b5:7b:6b:7d:89:f9:34:49:28:9e:4a:8f:be:4b:30:bf:71:
         ab:4a:4a:ff:f5:00:45:7e:c0:19:01:8c:85:97:fc:cf:8a:92:
         80:49:c9:70:72:7c:89:77:bc:c7:7e:79:c5:ef:4b:d2:46:42:
         6e:49:09:bb:2e:27:3b:ba:26:4e:dc:fc:f9:ff:f4:f4:97:c6:
         67:ea:bd:67:2e:f1:94:e9:0d:3f:b8:91:cd:5c:b5:8f:e6:50:
         6c:98:e0:ff:cb:4c:50:c3:7e:9f:87:e5:59:1a:b1:12:b8:33:
         6e:03:30:4a
-----BEGIN CERTIFICATE-----
MIIDnjCCAoagAwIBAgIBLDANBgkqhkiG9w0BAQUFADAtMQswCQYDVQQGEwJJVDEM
MAoGA1UECgwDSUdJMRAwDgYDVQQDDAdUZXN0IENBMB4XDTEzMDkxNzEzMzMxN1oX
DTIzMDkxNTEzMzMxN1owKzELMAkGA1UEBhMCSVQxDDAKBgNVBAoTA0lHSTEOMAwG
A1UEAxMFbG9hZDYwggEiMA0GCSqGSIb3DQEBAQUAA4IBDwAwggEKAoIBAQCogDJj
tLTSZyffiFd2V0hyLFXOnGQVTpVbv3r0wRs9lSF4Eb04Sxy9qIPyrg08679iaEAQ
5mPSK7iYv6BoG2mE1eZRpicM2WtCfYzSbhZ3zxh3Lyky/uJqU/eGCv4KAgSjoM7/
J/E8i0gkHaTJ5W2TeVq3Om31l2cDvJr+TNFMVGch+dI/6568fR/Noq7gxbksdc2i
i65ZNTc4CAkvSDDTQFB90DZVnMH4Ss7mZYz6/yBPe/eWdmc7CusmW9WJiXMUwlxP
OeMCV/qkWnJt+TQQJcQrasb7PObPXpAxJUM6kT53634xx4n4JURRC8UDNEfJix6i
W0fuRYZktuYv+IzBAgMBAAGjgcowgccwDAYDVR0TAQH/BAIwADAdBgNVHQ4EFgQU
ZdTdE66iYnMQSxYEXJEXiVUbl6cwDgYDVR0PAQH/BAQDAgXgMD4GA1UdJQQ3MDUG
CCsGAQUFBwMBBggrBgEFBQcDAgYKKwYBBAGCNwoDAwYJYIZIAYb4QgQBBggrBgEF
BQcDBDAfBgNVHSMEGDAWgBSRdzZ7LrRp8yfqt/YIi0ojohFJxjAnBgNVHREEIDAe
gRxhbmRyZWEuY2VjY2FudGlAY25hZi5pbmZuLml0MA0GCSqGSIb3DQEBBQUAA4IB
AQCXxu3t2YTOkH96tGT1OiG6E6gS7TkyN59lQBA51DUBYNJoMf0kwE6Umcv7V7UR
fxKWMWHZeH42rUYO1s0fxqdzm8ufuyX5/65iH4s5QTU1q6nkmxgOef0NErONEyWe
uEUhcz7xses9l76lxn73tntesw8zXeb54P9Bq+N28ta1/FNGnILvOfb5MNZKYd3O
s6tytXtrfYn5NEkonkqPvkswv3GrSkr/9QBFfsAZAYyFl/zPipKASclwcnyJd7zH
fnnF70vSRkJuSQm7Lic7uiZO3Pz5//T0l8Zn6r1nLvGU6Q0/uJHNXLWP5lBsmOD/
y0xQw36fh+VZGrESuDNuAzBK
-----END CERTIFICATE-----
