Certificate:
    Data:
        Version: 3 (0x2)
        Serial Number: 56 (0x38)
    Signature Algorithm: sha1WithRSAEncryption
        Issuer: C=IT, O=IGI, CN=Test CA
        Validity
            Not Before: Sep 17 13:33:29 2013 GMT
            Not After : Sep 15 13:33:29 2023 GMT
        Subject: C=IT, O=IGI, CN=load18
        Subject Public Key Info:
            Public Key Algorithm: rsaEncryption
                Public-Key: (2048 bit)
                Modulus:
                    00:ab:b6:c1:f9:54:ec:ad:a0:5f:a1:cb:ae:70:6d:
                    72:df:f5:68:86:2e:c9:f7:45:56:25:c6:b7:32:fe:
                    f7:9b:9e:5d:1d:55:e1:56:bd:49:f4:03:09:20:c1:
                    07:9a:62:c9:58:7a:46:9e:39:4c:1b:e9:0e:8f:ba:
                    38:b1:74:8a:51:16:d7:cb:91:db:ed:4e:18:0a:ce:
                    be:e9:2c:9d:84:b3:e7:f3:97:3e:15:75:a1:e1:15:
                    e6:19:da:c4:61:f1:9d:f0:77:de:81:a1:2d:46:46:
                    7d:c1:b2:7d:ac:b5:8e:02:ba:26:ec:3f:8b:04:27:
                    2f:c8:a6:01:eb:32:b6:79:c2:2e:ae:a3:2a:a2:ba:
                    f0:1a:84:8d:88:18:9e:86:3f:b5:de:08:84:35:c2:
                    a5:82:5a:94:a8:bb:ec:a7:91:71:e7:b9:f1:29:8e:
                    b9:1c:ab:91:ae:8e:7e:e7:80:36:59:9c:6a:6a:a7:
                    b1:55:a8:41:09:02:cd:e4:68:40:32:95:08:14:b8:
                    9f:ec:4e:75:00:5b:d1:6e:72:87:d1:4d:29:75:72:
                    46:44:6d:84:52:f1:cd:37:cb:e2:fb:63:fd:a1:cf:
                    e5:ee:ab:e4:ad:73:d9:02:c5:56:4d:df:f3:8e:47:
                    96:a6:da:fd:fd:42:6e:81:ba:2a:dd:28:5e:76:e1:
                    fa:6f
                Exponent: 65537 (0x10001)
        X509v3 extensions:
            X509v3 Basic Constraints: critical
                CA:FALSE
            X509v3 Subject Key Identifier: 
                5A:94:B4:86:DD:5C:BE:EC:90:78:29:59:71:48:02:E6:84:EC:08:B9
            X509v3 Key Usage: critical
                Digital Signature, Non Repudiation, Key Encipherment
            X509v3 Extended Key Usage: 
                TLS Web Server Authentication, TLS Web Client Authentication, Microsoft Server Gated Crypto, Netscape Server Gated Crypto, E-mail Protection
            X509v3 Authority Key Identifier: 
                keyid:91:77:36:7B:2E:B4:69:F3:27:EA:B7:F6:08:8B:4A:23:A2:11:49:C6

            X509v3 Subject Alternative Name: 
                email:andrea.ceccanti@cnaf.infn.it
    Signature Algorithm: sha1WithRSAEncryption
         54:85:d3:5a:63:d3:3f:7d:dd:83:39:4d:72:50:df:f7:39:7b:
         b1:02:66:fb:b8:50:3b:68:7e:01:54:1d:ab:41:97:c5:85:62:
         d0:3d:4a:0d:9e:e8:37:ad:d5:16:74:f4:e0:12:9e:ec:d3:fc:
         79:1b:52:4c:64:78:6c:64:9e:83:76:52:99:bc:c4:bb:ac:35:
         26:f8:48:6b:28:02:46:6f:df:08:8e:0c:ef:90:21:b0:d5:89:
         51:5a:80:7a:ea:1f:fa:7c:5f:01:95:86:ec:3a:23:00:5b:79:
         bb:d0:72:7a:51:1b:94:3b:0c:db:01:84:e9:73:02:3c:f0:a9:
         2e:06:9a:6b:67:bc:b0:34:a4:dd:6f:b7:db:09:ba:7a:04:a8:
         5d:91:5e:c6:3a:23:44:37:68:2a:ed:63:88:4c:c5:1c:8d:11:
         4d:0b:4c:12:6f:59:36:e0:34:56:70:5d:e6:35:85:55:eb:a8:
         7d:05:25:14:31:3c:e5:16:35:ed:51:98:e1:95:1c:d7:86:bc:
         9b:47:fd:4e:19:ee:93:d3:82:c5:e6:7d:f8:84:4d:07:fe:1d:
         c0:e1:ac:b1:c5:63:29:ef:fb:4f:ae:e9:95:ed:e1:3e:a7:2c:
         da:77:8a:e7:09:d1:9f:0d:95:06:be:1a:2a:62:7b:b9:ab:c3:
         4a:23:bb:12
-----BEGIN CERTIFICATE-----
MIIDnzCCAoegAwIBAgIBODANBgkqhkiG9w0BAQUFADAtMQswCQYDVQQGEwJJVDEM
MAoGA1UECgwDSUdJMRAwDgYDVQQDDAdUZXN0IENBMB4XDTEzMDkxNzEzMzMyOVoX
DTIzMDkxNTEzMzMyOVowLDELMAkGA1UEBhMCSVQxDDAKBgNVBAoTA0lHSTEPMA0G
A1UEAxMGbG9hZDE4MIIBIjANBgkqhkiG9w0BAQEFAAOCAQ8AMIIBCgKCAQEAq7bB
+VTsraBfocuucG1y3/Vohi7J90VWJca3Mv73m55dHVXhVr1J9AMJIMEHmmLJWHpG
njlMG+kOj7o4sXSKURbXy5Hb7U4YCs6+6SydhLPn85c+FXWh4RXmGdrEYfGd8Hfe
gaEtRkZ9wbJ9rLWOArom7D+LBCcvyKYB6zK2ecIurqMqorrwGoSNiBiehj+13giE
NcKlglqUqLvsp5Fx57nxKY65HKuRro5+54A2WZxqaqexVahBCQLN5GhAMpUIFLif
7E51AFvRbnKH0U0pdXJGRG2EUvHNN8vi+2P9oc/l7qvkrXPZAsVWTd/zjkeWptr9
/UJugboq3SheduH6bwIDAQABo4HKMIHHMAwGA1UdEwEB/wQCMAAwHQYDVR0OBBYE
FFqUtIbdXL7skHgpWXFIAuaE7Ai5MA4GA1UdDwEB/wQEAwIF4DA+BgNVHSUENzA1
BggrBgEFBQcDAQYIKwYBBQUHAwIGCisGAQQBgjcKAwMGCWCGSAGG+EIEAQYIKwYB
BQUHAwQwHwYDVR0jBBgwFoAUkXc2ey60afMn6rf2CItKI6IRScYwJwYDVR0RBCAw
HoEcYW5kcmVhLmNlY2NhbnRpQGNuYWYuaW5mbi5pdDANBgkqhkiG9w0BAQUFAAOC
AQEAVIXTWmPTP33dgzlNclDf9zl7sQJm+7hQO2h+AVQdq0GXxYVi0D1KDZ7oN63V
FnT04BKe7NP8eRtSTGR4bGSeg3ZSmbzEu6w1JvhIaygCRm/fCI4M75AhsNWJUVqA
euof+nxfAZWG7DojAFt5u9ByelEblDsM2wGE6XMCPPCpLgaaa2e8sDSk3W+32wm6
egSoXZFexjojRDdoKu1jiEzFHI0RTQtMEm9ZNuA0VnBd5jWFVeuofQUlFDE85RY1
7VGY4ZUc14a8m0f9Thnuk9OCxeZ9+IRNB/4dwOGsscVjKe/7T67ple3hPqcs2neK
5wnRnw2VBr4aKmJ7uavDSiO7Eg==
-----END CERTIFICATE-----
