Certificate:
    Data:
        Version: 3 (0x2)
        Serial Number: 40 (0x28)
    Signature Algorithm: sha1WithRSAEncryption
        Issuer: C=IT, O=IGI, CN=Test CA
        Validity
            Not Before: Sep 17 13:33:14 2013 GMT
            Not After : Sep 15 13:33:14 2023 GMT
        Subject: C=IT, O=IGI, CN=load2
        Subject Public Key Info:
            Public Key Algorithm: rsaEncryption
                Public-Key: (2048 bit)
                Modulus:
                    00:bd:3b:5a:cb:a4:b0:db:ca:3b:9f:15:df:28:9c:
                    d7:66:a9:ea:af:03:b1:1f:ce:6e:31:a0:14:bf:8a:
                    a9:36:d9:c6:79:74:fb:53:ef:f2:a8:04:04:9c:ee:
                    69:14:56:38:34:78:e6:0a:58:a4:2d:94:40:74:a6:
                    64:8d:de:23:e6:7d:81:25:af:76:f7:6c:e1:f5:95:
                    0b:89:98:0f:8a:e6:79:34:5b:fe:97:f8:40:91:f4:
                    66:f9:5e:f4:f8:66:35:bb:11:9c:4c:b2:01:c3:ac:
                    22:2f:50:33:65:02:56:62:88:9c:60:2f:80:b5:a4:
                    33:32:28:9c:fd:73:8e:d2:44:22:d9:f5:24:ea:34:
                    04:b4:d2:20:2b:2c:21:5e:9d:62:88:c9:4a:64:90:
                    e5:d6:a4:60:ae:d9:f2:d7:67:f3:b3:8a:38:14:9d:
                    3e:51:76:79:61:5c:9d:d2:c4:bd:e6:65:1e:55:c7:
                    0b:54:85:59:bc:b6:fd:04:92:85:bd:88:29:8b:96:
                    af:90:58:a8:44:61:85:d3:24:3e:1d:ea:90:2f:c1:
                    a4:6a:52:45:e1:ff:7a:f4:8b:22:45:89:34:f5:9c:
                    3d:89:b7:81:77:24:1e:b1:bb:9e:7b:29:3d:4c:68:
                    c2:19:1d:07:c1:0d:3e:2a:df:99:35:24:7a:04:3d:
                    b1:0b
                Exponent: 65537 (0x10001)
        X509v3 extensions:
            X509v3 Basic Constraints: critical
                CA:FALSE
            X509v3 Subject Key Identifier: 
                DD:30:63:60:E2:73:64:5D:91:CC:0D:35:88:43:49:8E:CA:2A:B2:3C
            X509v3 Key Usage: critical
                Digital Signature, Non Repudiation, Key Encipherment
            X509v3 Extended Key Usage: 
                TLS Web Server Authentication, TLS Web Client Authentication, Microsoft Server Gated Crypto, Netscape Server Gated Crypto, E-mail Protection
            X509v3 Authority Key Identifier: 
                keyid:91:77:36:7B:2E:B4:69:F3:27:EA:B7:F6:08:8B:4A:23:A2:11:49:C6

            X509v3 Subject Alternative Name: 
                email:andrea.ceccanti@cnaf.infn.it
    Signature Algorithm: sha1WithRSAEncryption
         d0:4d:cf:e1:28:74:5b:3d:6e:07:57:e5:aa:29:bd:36:c7:d7:
         62:79:ca:2f:f1:b5:2d:29:64:03:d9:8f:f3:c2:91:af:d4:23:
         b6:e3:d6:18:15:92:eb:70:c5:f4:ff:00:32:ef:aa:4b:f7:20:
         c8:3a:02:6a:51:86:95:51:cd:bc:81:14:ef:22:9f:49:68:78:
         69:f1:d6:1c:ca:33:31:75:04:b9:45:68:d8:6d:2f:cc:27:da:
         12:63:e7:e4:6a:3d:c4:82:73:b7:75:33:e5:d0:70:4f:a7:3c:
         ed:1a:fd:57:04:c1:94:b3:11:d2:1d:51:c4:d2:84:f7:67:64:
         d3:24:46:35:f3:92:e7:25:66:18:f8:e3:6d:ef:b4:66:4a:64:
         7f:f5:83:f3:84:c2:99:01:29:d1:c4:02:5d:dc:3a:ea:ab:a9:
         79:fe:61:52:e6:a8:60:1d:46:b3:84:66:d1:6d:08:42:48:8d:
         09:02:7f:01:f0:53:a5:d9:ed:19:0d:8c:47:68:a4:7e:6f:83:
         38:f4:0b:38:60:23:60:db:06:7b:1f:e3:0f:66:4e:b7:38:29:
         64:6c:b1:7d:6d:b0:42:b9:51:7a:b7:2d:29:38:57:19:16:d9:
         1a:4c:55:ae:e8:48:7a:a6:60:e1:e4:9e:3b:cb:fd:4b:e8:b5:
         94:b1:0c:42
-----BEGIN CERTIFICATE-----
MIIDnjCCAoagAwIBAgIBKDANBgkqhkiG9w0BAQUFADAtMQswCQYDVQQGEwJJVDEM
MAoGA1UECgwDSUdJMRAwDgYDVQQDDAdUZXN0IENBMB4XDTEzMDkxNzEzMzMxNFoX
DTIzMDkxNTEzMzMxNFowKzELMAkGA1UEBhMCSVQxDDAKBgNVBAoTA0lHSTEOMAwG
A1UEAxMFbG9hZDIwggEiMA0GCSqGSIb3DQEBAQUAA4IBDwAwggEKAoIBAQC9O1rL
pLDbyjufFd8onNdmqeqvA7Efzm4xoBS/iqk22cZ5dPtT7/KoBASc7mkUVjg0eOYK
WKQtlEB0pmSN3iPmfYElr3b3bOH1lQuJmA+K5nk0W/6X+ECR9Gb5XvT4ZjW7EZxM
sgHDrCIvUDNlAlZiiJxgL4C1pDMyKJz9c47SRCLZ9STqNAS00iArLCFenWKIyUpk
kOXWpGCu2fLXZ/OzijgUnT5RdnlhXJ3SxL3mZR5VxwtUhVm8tv0EkoW9iCmLlq+Q
WKhEYYXTJD4d6pAvwaRqUkXh/3r0iyJFiTT1nD2Jt4F3JB6xu557KT1MaMIZHQfB
DT4q35k1JHoEPbELAgMBAAGjgcowgccwDAYDVR0TAQH/BAIwADAdBgNVHQ4EFgQU
3TBjYOJzZF2RzA01iENJjsoqsjwwDgYDVR0PAQH/BAQDAgXgMD4GA1UdJQQ3MDUG
CCsGAQUFBwMBBggrBgEFBQcDAgYKKwYBBAGCNwoDAwYJYIZIAYb4QgQBBggrBgEF
BQcDBDAfBgNVHSMEGDAWgBSRdzZ7LrRp8yfqt/YIi0ojohFJxjAnBgNVHREEIDAe
gRxhbmRyZWEuY2VjY2FudGlAY25hZi5pbmZuLml0MA0GCSqGSIb3DQEBBQUAA4IB
AQDQTc/hKHRbPW4HV+WqKb02x9diecov8bUtKWQD2Y/zwpGv1CO249YYFZLrcMX0
/wAy76pL9yDIOgJqUYaVUc28gRTvIp9JaHhp8dYcyjMxdQS5RWjYbS/MJ9oSY+fk
aj3EgnO3dTPl0HBPpzztGv1XBMGUsxHSHVHE0oT3Z2TTJEY185LnJWYY+ONt77Rm
SmR/9YPzhMKZASnRxAJd3Drqq6l5/mFS5qhgHUazhGbRbQhCSI0JAn8B8FOl2e0Z
DYxHaKR+b4M49As4YCNg2wZ7H+MPZk63OClkbLF9bbBCuVF6ty0pOFcZFtkaTFWu
6Eh6pmDh5J47y/1L6LWUsQxC
-----END CERTIFICATE-----
