Certificate:
    Data:
        Version: 3 (0x2)
        Serial Number: 54 (0x36)
    Signature Algorithm: sha1WithRSAEncryption
        Issuer: C=IT, O=IGI, CN=Test CA
        Validity
            Not Before: Sep 17 13:33:28 2013 GMT
            Not After : Sep 15 13:33:28 2023 GMT
        Subject: C=IT, O=IGI, CN=load16
        Subject Public Key Info:
            Public Key Algorithm: rsaEncryption
                Public-Key: (2048 bit)
                Modulus:
                    00:c3:52:49:0b:11:b8:49:e3:b8:23:ec:cb:b2:80:
                    b9:4f:44:05:5f:82:99:0d:92:4f:4f:fd:02:04:b9:
                    05:28:27:aa:77:19:dc:ee:55:7e:4a:be:f5:61:67:
                    22:9c:79:e0:ac:e0:6b:04:b3:d9:09:c7:52:7d:4e:
                    52:6c:77:dc:ea:81:02:20:13:5a:5f:9c:16:5b:a5:
                    90:b4:8f:36:b1:c2:2f:c2:97:37:54:eb:16:20:62:
                    e2:e2:0d:a0:2a:83:b3:a3:a5:0a:00:db:f7:2f:75:
                    14:29:da:51:1c:6a:51:ce:92:72:a9:e2:2b:2f:7b:
                    1e:21:9d:b6:35:36:b6:73:95:ff:af:79:2b:fa:56:
                    b9:ee:0d:d3:f5:a3:9e:8b:9c:4e:dd:74:36:19:d0:
                    a4:d5:e3:b6:e5:7f:a2:61:d3:d1:98:47:9e:ef:ed:
                    12:76:78:e1:c5:ac:0d:8e:86:a9:2d:3b:35:a0:ae:
                    ae:71:3f:b7:db:c1:da:2f:b8:5e:8d:f3:7d:fa:3d:
                    f2:25:2a:cb:9d:f4:3c:51:d7:ed:3e:99:78:6f:74:
                    1f:93:92:d2:46:3d:5a:eb:bf:05:4d:04:a9:9f:92:
                    f9:96:24:03:6c:6b:0c:fb:fb:bc:42:11:ba:18:1a:
                    df:eb:d5:c0:4d:c0:7f:65:41:ba:9a:c0:6a:b3:b2:
                    84:07
                Exponent: 65537 (0x10001)
        X509v3 extensions:
            X509v3 Basic Constraints: critical
                CA:FALSE
            X509v3 Subject Key Identifier: 
                9E:5A:20:EE:C9:BF:3E:C2:62:32:DA:74:A8:5C:72:22:29:96:A5:47
            X509v3 Key Usage: critical
                Digital Signature, Non Repudiation, Key Encipherment
            X509v3 Extended Key Usage: 
                TLS Web Server Authentication, TLS Web Client Authentication, Microsoft Server Gated Crypto, Netscape Server Gated Crypto, E-mail Protection
            X509v3 Authority Key Identifier: 
                keyid:91:77:36:7B:2E:B4:69:F3:27:EA:B7:F6:08:8B:4A:23:A2:11:49:C6

            X509v3 Subject Alternative Name: 
                email:andrea.ceccanti@cnaf.infn.it
    Signature Algorithm: sha1WithRSAEncryption
         cb:1f:c3:f0:d5:81:31:9b:27:5b:a2:f0:12:b8:6c:03:eb:fd:
         95:e4:e9:fa:10:9a:83:1e:d6:b6:3b:06:f9:4d:f2:af:57:28:
         60:5f:a7:4a:cc:de:d8:d4:9b:a5:d5:50:03:1d:20:97:cd:2d:
         80:2b:b4:40:60:25:46:44:7d:b5:bd:a1:83:d8:eb:55:09:a9:
         5f:6d:b5:c4:de:fe:22:78:c6:d1:1e:0d:30:61:81:71:8a:5a:
         3b:cb:e2:39:bf:36:d3:7d:8f:e1:87:c9:ae:bb:99:7c:02:d3:
         e6:e0:38:3f:7f:fc:d8:a9:a8:4e:88:27:66:01:9f:9c:1c:44:
         20:88:2e:23:a5:fc:0c:df:dc:ba:1e:11:49:34:8c:1b:9f:23:
         5c:54:7c:1a:31:0a:54:25:17:a1:e0:e9:e6:68:47:37:21:df:
         f6:0a:f4:3e:24:87:2d:5e:41:7b:a3:9f:ab:83:ff:46:ac:af:
         d7:72:1f:4e:d6:8b:7b:0a:14:5b:44:5d:d0:14:87:48:93:2e:
         72:5f:0c:db:e6:a9:43:38:11:3a:af:c5:be:d8:55:1a:d8:db:
         ef:ac:e7:5f:46:fd:64:86:9f:fc:4f:e1:9e:e8:9a:01:73:34:
         94:c9:cd:f9:7a:e8:95:87:a5:e0:d9:2d:1c:53:05:33:34:c4:
         8f:b4:29:ec
-----BEGIN CERTIFICATE-----
MIIDnzCCAoegAwIBAgIBNjANBgkqhkiG9w0BAQUFADAtMQswCQYDVQQGEwJJVDEM
MAoGA1UECgwDSUdJMRAwDgYDVQQDDAdUZXN0IENBMB4XDTEzMDkxNzEzMzMyOFoX
DTIzMDkxNTEzMzMyOFowLDELMAkGA1UEBhMCSVQxDDAKBgNVBAoTA0lHSTEPMA0G
A1UEAxMGbG9hZDE2MIIBIjANBgkqhkiG9w0BAQEFAAOCAQ8AMIIBCgKCAQEAw1JJ
CxG4SeO4I+zLsoC5T0QFX4KZDZJPT/0CBLkFKCeqdxnc7lV+Sr71YWcinHngrOBr
BLPZCcdSfU5SbHfc6oECIBNaX5wWW6WQtI82scIvwpc3VOsWIGLi4g2gKoOzo6UK
ANv3L3UUKdpRHGpRzpJyqeIrL3seIZ22NTa2c5X/r3kr+la57g3T9aOei5xO3XQ2
GdCk1eO25X+iYdPRmEee7+0SdnjhxawNjoapLTs1oK6ucT+328HaL7hejfN9+j3y
JSrLnfQ8UdftPpl4b3Qfk5LSRj1a678FTQSpn5L5liQDbGsM+/u8QhG6GBrf69XA
TcB/ZUG6msBqs7KEBwIDAQABo4HKMIHHMAwGA1UdEwEB/wQCMAAwHQYDVR0OBBYE
FJ5aIO7Jvz7CYjLadKhcciIplqVHMA4GA1UdDwEB/wQEAwIF4DA+BgNVHSUENzA1
BggrBgEFBQcDAQYIKwYBBQUHAwIGCisGAQQBgjcKAwMGCWCGSAGG+EIEAQYIKwYB
BQUHAwQwHwYDVR0jBBgwFoAUkXc2ey60afMn6rf2CItKI6IRScYwJwYDVR0RBCAw
HoEcYW5kcmVhLmNlY2NhbnRpQGNuYWYuaW5mbi5pdDANBgkqhkiG9w0BAQUFAAOC
AQEAyx/D8NWBMZsnW6LwErhsA+v9leTp+hCagx7WtjsG+U3yr1coYF+nSsze2NSb
pdVQAx0gl80tgCu0QGAlRkR9tb2hg9jrVQmpX221xN7+InjG0R4NMGGBcYpaO8vi
Ob82032P4YfJrruZfALT5uA4P3/82KmoTognZgGfnBxEIIguI6X8DN/cuh4RSTSM
G58jXFR8GjEKVCUXoeDp5mhHNyHf9gr0PiSHLV5Be6Ofq4P/Rqyv13IfTtaLewoU
W0Rd0BSHSJMucl8M2+apQzgROq/FvthVGtjb76znX0b9ZIaf/E/hnuiaAXM0lMnN
+XrolYel4NktHFMFMzTEj7Qp7A==
-----END CERTIFICATE-----
