Certificate:
    Data:
        Version: 3 (0x2)
        Serial Number: 57 (0x39)
    Signature Algorithm: sha1WithRSAEncryption
        Issuer: C=IT, O=IGI, CN=Test CA
        Validity
            Not Before: Sep 17 13:33:30 2013 GMT
            Not After : Sep 15 13:33:30 2023 GMT
        Subject: C=IT, O=IGI, CN=load19
        Subject Public Key Info:
            Public Key Algorithm: rsaEncryption
                Public-Key: (2048 bit)
                Modulus:
                    00:f1:1c:f2:08:1f:9c:0b:4a:4a:8e:ee:8d:78:b2:
                    a7:d0:8b:15:77:60:08:c7:03:22:e4:6d:54:ed:81:
                    8a:7e:ce:91:49:60:2b:30:60:07:b2:d4:a8:ff:99:
                    66:2d:b1:c0:58:5f:d5:c9:e1:a8:3e:c9:fd:68:da:
                    0f:64:bc:f8:9c:bb:85:34:15:47:45:1b:90:e9:6a:
                    ca:13:ee:44:d0:ae:0f:e6:dc:67:e0:f5:45:49:f9:
                    d1:d4:be:e9:62:f5:02:66:f1:51:63:6c:14:a2:5e:
                    25:6b:9d:15:c9:f6:04:82:fc:30:1a:3a:ae:7f:c2:
                    8d:3e:f1:1a:87:92:3e:43:b3:77:b4:bb:e9:3c:8b:
                    8a:fe:9f:51:4d:a3:82:1f:06:71:80:49:e3:bc:c7:
                    51:f2:e0:dc:0c:54:9d:4b:da:4a:1e:18:c7:c3:b4:
                    13:79:19:9e:f9:84:b6:d8:c6:a1:a9:e3:7a:73:8a:
                    31:d2:e4:e2:38:0b:ed:20:50:cf:03:26:1a:b1:51:
                    ec:a0:63:3a:de:46:57:3e:ce:99:8a:cd:d3:ac:2b:
                    c2:13:7f:03:b6:4a:a6:fd:22:a6:06:56:bb:a9:af:
                    b5:f0:30:97:55:fc:54:42:49:57:f2:0d:a7:e4:ec:
                    41:2f:7f:0c:24:b7:92:53:00:0a:59:82:d3:8d:79:
                    8e:7b
                Exponent: 65537 (0x10001)
        X509v3 extensions:
            X509v3 Basic Constraints: critical
                CA:FALSE
            X509v3 Subject Key Identifier: 
                5B:E6:6E:B8:9A:CB:37:66:0F:69:6E:2C:B8:5D:B6:0F:B6:80:31:72
            X509v3 Key Usage: critical
                Digital Signature, Non Repudiation, Key Encipherment
            X509v3 Extended Key Usage: 
                TLS Web Server Authentication, TLS Web Client Authentication, Microsoft Server Gated Crypto, Netscape Server Gated Crypto, E-mail Protection
            X509v3 Authority Key Identifier: 
                keyid:91:77:36:7B:2E:B4:69:F3:27:EA:B7:F6:08:8B:4A:23:A2:11:49:C6

            X509v3 Subject Alternative Name: 
                email:andrea.ceccanti@cnaf.infn.it
    Signature Algorithm: sha1WithRSAEncryption
         16:67:1c:cf:19:11:30:91:cd:8c:0b:4a:3b:34:ec:79:7b:87:
         52:dd:d2:f1:d9:07:8a:b2:e7:33:fb:f7:b9:ac:6b:e6:5c:72:
         4d:58:ba:33:43:30:4f:c7:8b:95:7d:96:fb:0d:9b:65:65:c9:
         b7:02:61:cf:1e:93:d0:99:d1:44:80:9b:01:99:16:16:b8:3a:
         68:47:25:36:28:31:07:1d:b5:26:83:d5:70:1d:37:74:45:68:
         5e:82:0b:a8:39:14:b8:c0:51:9f:4b:17:e6:24:9a:ae:59:88:
         ad:24:f2:95:c8:8a:5d:c9:2a:0f:62:d6:65:f8:1f:d6:b1:71:
         b5:d3:fd:01:03:46:ac:e9:05:61:a8:e9:c1:69:c4:4c:10:49:
         71:67:aa:d0:eb:3a:91:62:dc:d7:e9:72:98:6d:c8:60:6a:d2:
         79:e2:5e:a3:b6:f4:1a:f3:a6:2b:3c:19:b1:f6:36:22:d8:ac:
         a5:d6:13:39:60:00:d7:b2:59:01:f6:80:73:1d:07:aa:29:7b:
         56:1c:c5:fc:c9:aa:8b:20:90:39:96:57:ef:97:29:20:27:aa:
         87:17:7c:5a:61:7c:40:fa:e0:41:c6:e6:38:8f:b4:ac:a4:ad:
         4d:ca:69:58:3e:5d:97:85:32:94:18:15:20:0f:35:dc:a8:e3:
         cf:0a:c6:e5
-----BEGIN CERTIFICATE-----
MIIDnzCCAoegAwIBAgIBOTANBgkqhkiG9w0BAQUFADAtMQswCQYDVQQGEwJJVDEM
MAoGA1UECgwDSUdJMRAwDgYDVQQDDAdUZXN0IENBMB4XDTEzMDkxNzEzMzMzMFoX
DTIzMDkxNTEzMzMzMFowLDELMAkGA1UEBhMCSVQxDDAKBgNVBAoTA0lHSTEPMA0G
A1UEAxMGbG9hZDE5MIIBIjANBgkqhkiG9w0BAQEFAAOCAQ8AMIIBCgKCAQEA8Rzy
CB+cC0pKju6NeLKn0IsVd2AIxwMi5G1U7YGKfs6RSWArMGAHstSo/5lmLbHAWF/V
yeGoPsn9aNoPZLz4nLuFNBVHRRuQ6WrKE+5E0K4P5txn4PVFSfnR1L7pYvUCZvFR
Y2wUol4la50VyfYEgvwwGjquf8KNPvEah5I+Q7N3tLvpPIuK/p9RTaOCHwZxgEnj
vMdR8uDcDFSdS9pKHhjHw7QTeRme+YS22MahqeN6c4ox0uTiOAvtIFDPAyYasVHs
oGM63kZXPs6Zis3TrCvCE38Dtkqm/SKmBla7qa+18DCXVfxUQklX8g2n5OxBL38M
JLeSUwAKWYLTjXmOewIDAQABo4HKMIHHMAwGA1UdEwEB/wQCMAAwHQYDVR0OBBYE
FFvmbriayzdmD2luLLhdtg+2gDFyMA4GA1UdDwEB/wQEAwIF4DA+BgNVHSUENzA1
BggrBgEFBQcDAQYIKwYBBQUHAwIGCisGAQQBgjcKAwMGCWCGSAGG+EIEAQYIKwYB
BQUHAwQwHwYDVR0jBBgwFoAUkXc2ey60afMn6rf2CItKI6IRScYwJwYDVR0RBCAw
HoEcYW5kcmVhLmNlY2NhbnRpQGNuYWYuaW5mbi5pdDANBgkqhkiG9w0BAQUFAAOC
AQEAFmcczxkRMJHNjAtKOzTseXuHUt3S8dkHirLnM/v3uaxr5lxyTVi6M0MwT8eL
lX2W+w2bZWXJtwJhzx6T0JnRRICbAZkWFrg6aEclNigxBx21JoPVcB03dEVoXoIL
qDkUuMBRn0sX5iSarlmIrSTylciKXckqD2LWZfgf1rFxtdP9AQNGrOkFYajpwWnE
TBBJcWeq0Os6kWLc1+lymG3IYGrSeeJeo7b0GvOmKzwZsfY2ItispdYTOWAA17JZ
AfaAcx0Hqil7VhzF/MmqiyCQOZZX75cpICeqhxd8WmF8QPrgQcbmOI+0rKStTcpp
WD5dl4UylBgVIA813KjjzwrG5Q==
-----END CERTIFICATE-----
