Certificate:
    Data:
        Version: 3 (0x2)
        Serial Number: 43 (0x2b)
    Signature Algorithm: sha1WithRSAEncryption
        Issuer: C=IT, O=IGI, CN=Test CA
        Validity
            Not Before: Sep 17 13:33:17 2013 GMT
            Not After : Sep 15 13:33:17 2023 GMT
        Subject: C=IT, O=IGI, CN=load5
        Subject Public Key Info:
            Public Key Algorithm: rsaEncryption
                Public-Key: (2048 bit)
                Modulus:
                    00:bf:ac:68:57:2f:7b:a4:95:b9:9b:13:e1:c4:18:
                    6f:07:64:58:5b:ae:66:30:e5:f3:34:91:62:f6:d8:
                    16:48:74:9c:18:95:44:e8:1f:4f:6b:9c:49:cc:a3:
                    bc:5d:6c:bd:73:b1:52:90:4d:97:ed:3e:a9:0e:b7:
                    82:c7:54:d9:6d:53:97:24:37:20:91:e4:d5:7c:ff:
                    48:a1:9a:b5:05:d8:00:ba:d7:5e:d7:c6:b5:de:87:
                    b1:a3:a6:14:97:47:fa:57:bf:ae:11:d3:91:64:ef:
                    0e:cf:fa:0b:5a:c0:94:26:79:d0:e0:b4:8d:75:06:
                    d8:90:04:94:4a:12:0b:73:1c:8b:85:7a:c4:bb:ac:
                    c0:a9:2b:3a:5e:07:4e:52:4c:32:fc:82:0d:0f:35:
                    91:14:16:92:08:8b:a1:c0:3e:4d:c0:d2:80:77:97:
                    fd:ce:46:5b:a0:5a:e6:44:68:9a:67:a6:24:4d:69:
                    13:95:f6:ad:67:69:f5:16:7a:39:9e:bb:4a:35:f3:
                    55:e4:86:ac:5f:e6:fa:ad:19:dc:b2:cf:e8:1f:8b:
                    01:fc:39:f0:c3:50:ad:70:70:6e:b7:4f:75:10:f1:
                    ba:b8:49:29:4a:6b:ff:36:6c:cd:35:46:95:59:b5:
                    e0:a1:34:1b:03:e6:1c:78:86:41:27:89:b9:c5:54:
                    67:db
                Exponent: 65537 (0x10001)
        X509v3 extensions:
            X509v3 Basic Constraints: critical
                CA:FALSE
            X509v3 Subject Key Identifier: 
                6C:B7:4F:1A:FD:C7:76:91:08:1B:B0:6B:72:45:46:66:9F:AC:23:BB
            X509v3 Key Usage: critical
                Digital Signature, Non Repudiation, Key Encipherment
            X509v3 Extended Key Usage: 
                TLS Web Server Authentication, TLS Web Client Authentication, Microsoft Server Gated Crypto, Netscape Server Gated Crypto, E-mail Protection
            X509v3 Authority Key Identifier: 
                keyid:91:77:36:7B:2E:B4:69:F3:27:EA:B7:F6:08:8B:4A:23:A2:11:49:C6

            X509v3 Subject Alternative Name: 
                email:andrea.ceccanti@cnaf.infn.it
    Signature Algorithm: sha1WithRSAEncryption
         a0:fe:23:e6:dc:74:72:ca:f0:6b:0a:6e:a5:8f:a4:66:5e:dc:
         f6:10:e1:9f:7d:cd:22:cb:b3:c8:b7:31:ae:fc:f5:67:16:7f:
         f3:d5:1a:e0:e6:d3:a4:6a:9b:fc:f6:e6:6e:8a:fb:45:98:51:
         81:00:71:ee:03:0e:ed:b9:f2:d7:9e:c9:70:b2:97:49:8a:8e:
         e8:db:2f:e2:e6:8a:02:1e:cd:14:52:28:78:40:5d:a7:4d:bd:
         5f:15:4e:de:af:6c:01:b2:e1:63:80:44:77:73:b9:b5:2c:69:
         34:42:ea:a4:f5:79:a1:87:fb:a3:8e:75:fa:df:cd:b6:b3:c7:
         95:94:a5:bf:1e:79:ac:9c:d3:4a:14:c0:e8:0d:ed:29:28:93:
         5e:bc:a2:af:08:67:d8:10:0b:eb:c1:90:57:cb:96:8d:bb:69:
         1c:ae:07:c9:6f:23:a6:7d:aa:bb:99:42:d1:ba:9c:66:38:96:
         56:00:7b:9f:58:4a:44:04:7b:ba:04:9f:5f:c0:e1:b3:2e:e3:
         1a:a2:19:91:cc:44:76:67:e9:ca:2f:90:a6:7f:fd:7c:28:35:
         e0:d3:61:99:d2:97:b1:49:39:bb:c5:65:44:f9:5a:bc:e7:36:
         d8:f2:2c:73:f5:65:f5:c9:3b:83:fa:c5:cc:9a:aa:c9:d1:71:
         80:8f:c9:6c
-----BEGIN CERTIFICATE-----
MIIDnjCCAoagAwIBAgIBKzANBgkqhkiG9w0BAQUFADAtMQswCQYDVQQGEwJJVDEM
MAoGA1UECgwDSUdJMRAwDgYDVQQDDAdUZXN0IENBMB4XDTEzMDkxNzEzMzMxN1oX
DTIzMDkxNTEzMzMxN1owKzELMAkGA1UEBhMCSVQxDDAKBgNVBAoTA0lHSTEOMAwG
A1UEAxMFbG9hZDUwggEiMA0GCSqGSIb3DQEBAQUAA4IBDwAwggEKAoIBAQC/rGhX
L3uklbmbE+HEGG8HZFhbrmYw5fM0kWL22BZIdJwYlUToH09rnEnMo7xdbL1zsVKQ
TZftPqkOt4LHVNltU5ckNyCR5NV8/0ihmrUF2AC6117XxrXeh7GjphSXR/pXv64R
05Fk7w7P+gtawJQmedDgtI11BtiQBJRKEgtzHIuFesS7rMCpKzpeB05STDL8gg0P
NZEUFpIIi6HAPk3A0oB3l/3ORlugWuZEaJpnpiRNaROV9q1nafUWejmeu0o181Xk
hqxf5vqtGdyyz+gfiwH8OfDDUK1wcG63T3UQ8bq4SSlKa/82bM01RpVZteChNBsD
5hx4hkEnibnFVGfbAgMBAAGjgcowgccwDAYDVR0TAQH/BAIwADAdBgNVHQ4EFgQU
bLdPGv3HdpEIG7BrckVGZp+sI7swDgYDVR0PAQH/BAQDAgXgMD4GA1UdJQQ3MDUG
CCsGAQUFBwMBBggrBgEFBQcDAgYKKwYBBAGCNwoDAwYJYIZIAYb4QgQBBggrBgEF
BQcDBDAfBgNVHSMEGDAWgBSRdzZ7LrRp8yfqt/YIi0ojohFJxjAnBgNVHREEIDAe
gRxhbmRyZWEuY2VjY2FudGlAY25hZi5pbmZuLml0MA0GCSqGSIb3DQEBBQUAA4IB
AQCg/iPm3HRyyvBrCm6lj6RmXtz2EOGffc0iy7PItzGu/PVnFn/z1Rrg5tOkapv8
9uZuivtFmFGBAHHuAw7tufLXnslwspdJio7o2y/i5ooCHs0UUih4QF2nTb1fFU7e
r2wBsuFjgER3c7m1LGk0Quqk9Xmhh/ujjnX63822s8eVlKW/HnmsnNNKFMDoDe0p
KJNevKKvCGfYEAvrwZBXy5aNu2kcrgfJbyOmfaq7mULRupxmOJZWAHufWEpEBHu6
BJ9fwOGzLuMaohmRzER2Z+nKL5Cmf/18KDXg02GZ0pexSTm7xWVE+Vq85zbY8ixz
9WX1yTuD+sXMmqrJ0XGAj8ls
-----END CERTIFICATE-----
