Certificate:
    Data:
        Version: 3 (0x2)
        Serial Number: 55 (0x37)
    Signature Algorithm: sha1WithRSAEncryption
        Issuer: C=IT, O=IGI, CN=Test CA
        Validity
            Not Before: Sep 17 13:33:28 2013 GMT
            Not After : Sep 15 13:33:28 2023 GMT
        Subject: C=IT, O=IGI, CN=load17
        Subject Public Key Info:
            Public Key Algorithm: rsaEncryption
                Public-Key: (2048 bit)
                Modulus:
                    00:bd:2b:0e:81:58:87:08:ce:5d:73:ec:88:89:72:
                    0c:f3:7b:bd:51:e4:4f:62:14:45:0b:48:06:c1:b1:
                    96:4e:c4:23:93:e3:6f:ad:05:da:0e:7b:fd:45:4a:
                    fd:25:6c:83:12:14:c5:bf:73:c7:92:76:ad:d5:57:
                    77:03:39:12:d8:a1:c4:7e:29:55:98:18:4d:9b:ce:
                    48:75:14:55:fd:55:2d:05:a7:68:aa:3a:3d:62:71:
                    49:24:7a:6a:da:73:bc:12:8a:07:af:a9:85:0e:51:
                    dd:e9:1b:b9:24:2c:fd:00:85:73:5a:0f:ca:57:e1:
                    dd:82:f8:aa:9a:b2:af:84:e6:d1:d3:17:3a:45:97:
                    71:37:19:1d:7b:f1:59:30:3c:ce:45:29:d3:51:fc:
                    55:a2:24:f3:f8:9d:da:5d:ee:14:31:7e:a7:af:fe:
                    b5:b9:69:4a:de:c5:33:8e:c6:5e:40:b1:05:b7:b3:
                    06:67:b2:ed:65:c4:b7:0e:7c:91:c8:27:ab:3e:bd:
                    07:a5:35:16:14:79:d3:bb:74:80:8b:54:64:01:1f:
                    d6:8a:36:b5:f6:af:16:27:05:9b:b3:e9:ed:42:2c:
                    5f:51:7c:f1:55:53:b1:88:e5:2a:aa:6b:99:8a:22:
                    8a:34:66:34:a0:78:39:a5:4d:cf:d8:a0:bd:f4:10:
                    94:25
                Exponent: 65537 (0x10001)
        X509v3 extensions:
            X509v3 Basic Constraints: critical
                CA:FALSE
            X509v3 Subject Key Identifier: 
                68:B0:89:75:4E:F5:81:88:56:26:4C:B7:90:F2:D3:6C:B0:77:B2:0B
            X509v3 Key Usage: critical
                Digital Signature, Non Repudiation, Key Encipherment
            X509v3 Extended Key Usage: 
                TLS Web Server Authentication, TLS Web Client Authentication, Microsoft Server Gated Crypto, Netscape Server Gated Crypto, E-mail Protection
            X509v3 Authority Key Identifier: 
                keyid:91:77:36:7B:2E:B4:69:F3:27:EA:B7:F6:08:8B:4A:23:A2:11:49:C6

            X509v3 Subject Alternative Name: 
                email:andrea.ceccanti@cnaf.infn.it
    Signature Algorithm: sha1WithRSAEncryption
         09:a9:b3:f6:e9:f7:30:76:22:d4:ee:a7:c7:c3:cc:73:45:3c:
         05:eb:ca:d2:fd:e4:4d:26:d2:88:27:46:9e:c5:3b:68:d1:7b:
         03:8c:d2:3a:ab:3d:a7:54:b1:79:b4:d7:7c:5d:f6:71:3e:63:
         c3:ae:62:00:f8:c1:a4:f8:bb:d6:04:ed:2d:c3:4c:f5:30:69:
         4f:49:aa:7d:cb:bc:18:a6:69:95:16:19:6d:2e:82:b7:4f:56:
         e1:3a:87:03:5e:29:fa:07:ae:b7:63:a4:c2:c0:c5:63:e3:c0:
         30:54:71:21:4a:89:18:40:8d:40:b3:d7:52:d1:81:de:8e:b3:
         ed:d6:35:ae:06:bb:6c:46:3b:fc:4d:de:0b:e2:9b:5a:08:18:
         f3:ed:22:af:f2:89:f5:34:1b:f5:fd:ad:ff:d2:8d:aa:8f:de:
         6e:14:e0:0f:db:ad:2e:7d:10:83:9d:b2:44:6e:f7:4c:dc:7c:
         5c:61:c1:b0:2e:89:65:c3:65:fd:29:2f:88:5f:f7:77:5d:f8:
         a4:69:57:0e:b0:16:37:d2:b2:93:6a:7f:3f:d2:63:85:1e:57:
         59:50:18:f0:e4:be:81:e4:2d:29:19:99:a2:e0:92:e1:a5:00:
         d8:6e:af:7e:01:40:01:62:ec:b7:c0:a2:16:76:35:86:30:2d:
         29:84:52:76
-----BEGIN CERTIFICATE-----
MIIDnzCCAoegAwIBAgIBNzANBgkqhkiG9w0BAQUFADAtMQswCQYDVQQGEwJJVDEM
MAoGA1UECgwDSUdJMRAwDgYDVQQDDAdUZXN0IENBMB4XDTEzMDkxNzEzMzMyOFoX
DTIzMDkxNTEzMzMyOFowLDELMAkGA1UEBhMCSVQxDDAKBgNVBAoTA0lHSTEPMA0G
A1UEAxMGbG9hZDE3MIIBIjANBgkqhkiG9w0BAQEFAAOCAQ8AMIIBCgKCAQEAvSsO
gViHCM5dc+yIiXIM83u9UeRPYhRFC0gGwbGWTsQjk+NvrQXaDnv9RUr9JWyDEhTF
v3PHknat1Vd3AzkS2KHEfilVmBhNm85IdRRV/VUtBadoqjo9YnFJJHpq2nO8EooH
r6mFDlHd6Ru5JCz9AIVzWg/KV+HdgviqmrKvhObR0xc6RZdxNxkde/FZMDzORSnT
UfxVoiTz+J3aXe4UMX6nr/61uWlK3sUzjsZeQLEFt7MGZ7LtZcS3DnyRyCerPr0H
pTUWFHnTu3SAi1RkAR/Wija19q8WJwWbs+ntQixfUXzxVVOxiOUqqmuZiiKKNGY0
oHg5pU3P2KC99BCUJQIDAQABo4HKMIHHMAwGA1UdEwEB/wQCMAAwHQYDVR0OBBYE
FGiwiXVO9YGIViZMt5Dy02ywd7ILMA4GA1UdDwEB/wQEAwIF4DA+BgNVHSUENzA1
BggrBgEFBQcDAQYIKwYBBQUHAwIGCisGAQQBgjcKAwMGCWCGSAGG+EIEAQYIKwYB
BQUHAwQwHwYDVR0jBBgwFoAUkXc2ey60afMn6rf2CItKI6IRScYwJwYDVR0RBCAw
HoEcYW5kcmVhLmNlY2NhbnRpQGNuYWYuaW5mbi5pdDANBgkqhkiG9w0BAQUFAAOC
AQEACamz9un3MHYi1O6nx8PMc0U8BevK0v3kTSbSiCdGnsU7aNF7A4zSOqs9p1Sx
ebTXfF32cT5jw65iAPjBpPi71gTtLcNM9TBpT0mqfcu8GKZplRYZbS6Ct09W4TqH
A14p+geut2OkwsDFY+PAMFRxIUqJGECNQLPXUtGB3o6z7dY1rga7bEY7/E3eC+Kb
WggY8+0ir/KJ9TQb9f2t/9KNqo/ebhTgD9utLn0Qg52yRG73TNx8XGHBsC6JZcNl
/SkviF/3d134pGlXDrAWN9Kyk2p/P9JjhR5XWVAY8OS+geQtKRmZouCS4aUA2G6v
fgFAAWLst8CiFnY1hjAtKYRSdg==
-----END CERTIFICATE-----
