Certificate:
    Data:
        Version: 3 (0x2)
        Serial Number: 53 (0x35)
    Signature Algorithm: sha1WithRSAEncryption
        Issuer: C=IT, O=IGI, CN=Test CA
        Validity
            Not Before: Sep 17 13:33:27 2013 GMT
            Not After : Sep 15 13:33:27 2023 GMT
        Subject: C=IT, O=IGI, CN=load15
        Subject Public Key Info:
            Public Key Algorithm: rsaEncryption
                Public-Key: (2048 bit)
                Modulus:
                    00:bc:2f:71:9b:a5:18:0f:0d:81:57:09:a0:a1:28:
                    ea:d5:d5:3f:44:2a:16:9d:30:69:50:78:3b:10:5e:
                    33:08:b1:07:3c:ce:6e:95:73:67:09:d1:69:54:35:
                    b9:f1:f7:d1:3d:7e:f7:45:92:8e:ad:a9:4d:97:e4:
                    1e:2a:30:43:44:3a:10:6c:56:bf:12:c0:e1:6e:46:
                    de:87:85:d7:3d:41:d8:04:57:22:3b:4c:f8:cf:fa:
                    ef:4b:53:67:5a:20:25:19:e0:b7:f2:a3:6b:ac:b1:
                    c6:f6:d8:e5:5e:03:35:cb:ef:2d:16:24:13:c6:2e:
                    0b:f4:6b:87:04:ac:03:6e:d8:58:96:e9:b8:ea:8c:
                    e5:30:14:15:0d:2d:75:f8:a0:da:cb:a5:5b:71:5b:
                    73:90:11:2d:d9:30:9e:db:68:e4:fa:71:59:a6:8d:
                    50:23:88:ca:36:8e:72:70:59:2d:c0:e0:f5:8c:4b:
                    d0:32:6d:c0:6b:07:99:d1:31:49:7d:a7:2f:68:d8:
                    fa:b9:b4:d9:5a:f8:fd:f9:2a:6e:6b:ff:67:3d:fa:
                    87:59:81:70:0e:d2:aa:fd:8d:ce:c1:2d:70:d9:ec:
                    4b:ed:14:0f:48:2c:34:a9:55:f6:a2:7a:3c:e4:96:
                    11:2a:88:e4:e9:03:4d:ae:03:27:39:c4:fc:7c:01:
                    44:4b
                Exponent: 65537 (0x10001)
        X509v3 extensions:
            X509v3 Basic Constraints: critical
                CA:FALSE
            X509v3 Subject Key Identifier: 
                FB:2D:F4:C6:12:D2:9F:32:F6:F2:03:C9:AB:98:40:2F:8D:0F:16:BB
            X509v3 Key Usage: critical
                Digital Signature, Non Repudiation, Key Encipherment
            X509v3 Extended Key Usage: 
                TLS Web Server Authentication, TLS Web Client Authentication, Microsoft Server Gated Crypto, Netscape Server Gated Crypto, E-mail Protection
            X509v3 Authority Key Identifier: 
                keyid:91:77:36:7B:2E:B4:69:F3:27:EA:B7:F6:08:8B:4A:23:A2:11:49:C6

            X509v3 Subject Alternative Name: 
                email:andrea.ceccanti@cnaf.infn.it
    Signature Algorithm: sha1WithRSAEncryption
         5d:59:85:07:00:c1:d3:67:f9:22:28:13:c5:9d:ea:87:1d:8c:
         a6:67:b6:02:e6:88:8a:02:f9:37:2d:03:9b:99:61:13:14:77:
         34:19:e0:ba:03:b6:77:d6:bc:83:55:df:3c:4e:ff:71:da:b1:
         87:b6:54:b9:84:91:68:5e:30:86:9a:ea:40:f7:8e:47:e7:05:
         91:de:de:77:d5:98:e8:ab:d8:f2:02:f2:bc:cb:4d:3b:47:8d:
         e0:7c:89:1e:79:26:96:77:06:63:dd:bb:4c:21:7c:d6:6e:88:
         75:1b:87:11:4a:01:9b:cb:32:42:3d:fd:f7:27:23:44:ed:66:
         7b:f9:fa:17:4c:43:7b:1d:31:44:7f:05:3a:6f:8a:b3:b1:ca:
         2c:88:26:80:cd:42:d4:59:f8:80:b0:37:0e:ac:0f:fc:2e:6a:
         81:2b:1c:fd:51:f2:f1:2a:30:21:3c:97:e1:29:e4:15:6f:aa:
         25:3d:01:d2:ab:02:5b:06:51:df:ff:f0:b7:8c:ba:48:e8:f3:
         f1:16:af:f1:dd:44:1f:6f:00:ba:f7:18:fe:6a:a2:a1:5e:cb:
         de:75:3a:d9:41:d2:47:c6:91:da:9e:53:f1:09:9a:4c:1b:ad:
         e6:23:f7:1f:04:48:36:78:d1:4e:13:11:db:4a:7c:35:26:ab:
         a9:4d:52:75
-----BEGIN CERTIFICATE-----
MIIDnzCCAoegAwIBAgIBNTANBgkqhkiG9w0BAQUFADAtMQswCQYDVQQGEwJJVDEM
MAoGA1UECgwDSUdJMRAwDgYDVQQDDAdUZXN0IENBMB4XDTEzMDkxNzEzMzMyN1oX
DTIzMDkxNTEzMzMyN1owLDELMAkGA1UEBhMCSVQxDDAKBgNVBAoTA0lHSTEPMA0G
A1UEAxMGbG9hZDE1MIIBIjANBgkqhkiG9w0BAQEFAAOCAQ8AMIIBCgKCAQEAvC9x
m6UYDw2BVwmgoSjq1dU/RCoWnTBpUHg7EF4zCLEHPM5ulXNnCdFpVDW58ffRPX73
RZKOralNl+QeKjBDRDoQbFa/EsDhbkbeh4XXPUHYBFciO0z4z/rvS1NnWiAlGeC3
8qNrrLHG9tjlXgM1y+8tFiQTxi4L9GuHBKwDbthYlum46ozlMBQVDS11+KDay6Vb
cVtzkBEt2TCe22jk+nFZpo1QI4jKNo5ycFktwOD1jEvQMm3AaweZ0TFJfacvaNj6
ubTZWvj9+Spua/9nPfqHWYFwDtKq/Y3OwS1w2exL7RQPSCw0qVX2ono85JYRKojk
6QNNrgMnOcT8fAFESwIDAQABo4HKMIHHMAwGA1UdEwEB/wQCMAAwHQYDVR0OBBYE
FPst9MYS0p8y9vIDyauYQC+NDxa7MA4GA1UdDwEB/wQEAwIF4DA+BgNVHSUENzA1
BggrBgEFBQcDAQYIKwYBBQUHAwIGCisGAQQBgjcKAwMGCWCGSAGG+EIEAQYIKwYB
BQUHAwQwHwYDVR0jBBgwFoAUkXc2ey60afMn6rf2CItKI6IRScYwJwYDVR0RBCAw
HoEcYW5kcmVhLmNlY2NhbnRpQGNuYWYuaW5mbi5pdDANBgkqhkiG9w0BAQUFAAOC
AQEAXVmFBwDB02f5IigTxZ3qhx2Mpme2AuaIigL5Ny0Dm5lhExR3NBngugO2d9a8
g1XfPE7/cdqxh7ZUuYSRaF4whprqQPeOR+cFkd7ed9WY6KvY8gLyvMtNO0eN4HyJ
HnkmlncGY927TCF81m6IdRuHEUoBm8syQj399ycjRO1me/n6F0xDex0xRH8FOm+K
s7HKLIgmgM1C1Fn4gLA3DqwP/C5qgSsc/VHy8SowITyX4SnkFW+qJT0B0qsCWwZR
3//wt4y6SOjz8Rav8d1EH28AuvcY/mqioV7L3nU62UHSR8aR2p5T8QmaTBut5iP3
HwRINnjRThMR20p8NSarqU1SdQ==
-----END CERTIFICATE-----
