Certificate:
    Data:
        Version: 3 (0x2)
        Serial Number: 39 (0x27)
    Signature Algorithm: sha1WithRSAEncryption
        Issuer: C=IT, O=IGI, CN=Test CA
        Validity
            Not Before: Sep 17 13:33:12 2013 GMT
            Not After : Sep 15 13:33:12 2023 GMT
        Subject: C=IT, O=IGI, CN=load1
        Subject Public Key Info:
            Public Key Algorithm: rsaEncryption
                Public-Key: (2048 bit)
                Modulus:
                    00:92:64:4a:d5:4e:8d:c1:fb:ec:1d:c5:c7:62:b5:
                    60:2b:d7:f6:e9:ba:0f:be:34:f5:a8:96:fb:42:53:
                    2d:90:d1:88:41:c8:f4:fa:70:05:49:fe:a2:ba:e6:
                    09:03:56:b2:f8:64:72:71:be:fb:ba:81:9c:f1:32:
                    fa:16:5e:81:84:47:48:2f:6a:14:d2:61:26:cf:fb:
                    e4:dd:8a:83:af:c5:97:32:67:ac:6c:65:ac:69:20:
                    a9:0f:82:13:ef:92:8b:95:a8:34:16:b0:bb:ef:f2:
                    fe:2d:bc:5d:0a:75:72:21:1c:dc:32:a6:05:0c:45:
                    8f:80:0f:8d:27:80:17:d1:83:7f:8b:2f:f1:aa:e9:
                    53:b9:63:ad:c9:a1:1d:75:31:df:f2:02:61:9f:93:
                    d8:26:d2:5e:be:a4:a6:ad:49:d0:9e:b4:53:bf:2a:
                    50:61:47:35:ae:87:f8:c0:bd:40:3d:7d:fe:79:94:
                    82:2c:0f:88:cf:2f:a6:f0:64:be:bd:a2:59:3e:63:
                    b7:0c:b3:91:07:52:e0:43:61:b0:32:76:ba:ce:33:
                    fd:00:8d:fc:b7:5d:e7:1c:04:c2:3e:a3:77:16:a5:
                    5c:f3:c9:08:28:4e:7e:3d:96:eb:19:23:b9:84:99:
                    66:65:c2:63:ba:5b:a1:b9:b3:44:5a:67:e1:42:23:
                    ce:2b
                Exponent: 65537 (0x10001)
        X509v3 extensions:
            X509v3 Basic Constraints: critical
                CA:FALSE
            X509v3 Subject Key Identifier: 
                59:97:AF:C3:D4:FD:E0:66:58:5B:CF:C8:12:51:EE:ED:BB:D1:E8:04
            X509v3 Key Usage: critical
                Digital Signature, Non Repudiation, Key Encipherment
            X509v3 Extended Key Usage: 
                TLS Web Server Authentication, TLS Web Client Authentication, Microsoft Server Gated Crypto, Netscape Server Gated Crypto, E-mail Protection
            X509v3 Authority Key Identifier: 
                keyid:91:77:36:7B:2E:B4:69:F3:27:EA:B7:F6:08:8B:4A:23:A2:11:49:C6

            X509v3 Subject Alternative Name: 
                email:andrea.ceccanti@cnaf.infn.it
    Signature Algorithm: sha1WithRSAEncryption
         46:fc:63:f0:a3:2a:9a:98:ac:2e:9d:77:84:68:8a:2a:9a:62:
         61:10:84:ec:8b:5e:45:85:4f:5a:80:5a:46:e7:21:53:01:1f:
         c8:5f:db:28:be:29:b1:60:60:60:0a:d1:3d:96:e0:b2:56:10:
         70:85:e2:dd:b9:04:53:cc:f9:45:9d:05:3f:3e:a1:7a:6a:0f:
         87:2d:8e:43:f6:94:c0:dd:8c:a8:21:f3:34:88:bc:a4:3f:21:
         a8:10:ea:2c:56:56:24:95:14:43:4a:69:8a:a5:48:e2:5f:59:
         97:f5:89:dc:a4:cc:d3:30:29:c2:f3:78:0e:ad:cb:5c:fd:27:
         43:5b:8f:d8:80:93:74:ac:d3:a6:d8:17:b5:8d:68:c5:cd:38:
         ae:2d:2e:fe:f1:15:5a:ca:89:0f:84:e7:dd:3f:c8:bb:0d:24:
         32:9a:09:90:b7:8e:7b:fc:0a:f7:b5:dd:56:34:1f:46:97:d5:
         e1:0b:99:e8:40:44:18:d8:aa:ea:3d:98:ac:e1:d8:6b:e7:2e:
         0a:bd:2d:1a:0f:a5:3b:a2:c9:51:75:b6:cc:84:79:b9:d3:35:
         00:14:b6:e1:b7:7e:64:7f:3e:c2:f6:1e:a3:01:5c:1a:17:cd:
         0d:66:33:93:4e:44:37:56:40:f0:e5:df:72:f9:95:94:21:f5:
         0e:ae:5c:ae
-----BEGIN CERTIFICATE-----
MIIDnjCCAoagAwIBAgIBJzANBgkqhkiG9w0BAQUFADAtMQswCQYDVQQGEwJJVDEM
MAoGA1UECgwDSUdJMRAwDgYDVQQDDAdUZXN0IENBMB4XDTEzMDkxNzEzMzMxMloX
DTIzMDkxNTEzMzMxMlowKzELMAkGA1UEBhMCSVQxDDAKBgNVBAoTA0lHSTEOMAwG
A1UEAxMFbG9hZDEwggEiMA0GCSqGSIb3DQEBAQUAA4IBDwAwggEKAoIBAQCSZErV
To3B++wdxcditWAr1/bpug++NPWolvtCUy2Q0YhByPT6cAVJ/qK65gkDVrL4ZHJx
vvu6gZzxMvoWXoGER0gvahTSYSbP++TdioOvxZcyZ6xsZaxpIKkPghPvkouVqDQW
sLvv8v4tvF0KdXIhHNwypgUMRY+AD40ngBfRg3+LL/Gq6VO5Y63JoR11Md/yAmGf
k9gm0l6+pKatSdCetFO/KlBhRzWuh/jAvUA9ff55lIIsD4jPL6bwZL69olk+Y7cM
s5EHUuBDYbAydrrOM/0Ajfy3XeccBMI+o3cWpVzzyQgoTn49lusZI7mEmWZlwmO6
W6G5s0RaZ+FCI84rAgMBAAGjgcowgccwDAYDVR0TAQH/BAIwADAdBgNVHQ4EFgQU
WZevw9T94GZYW8/IElHu7bvR6AQwDgYDVR0PAQH/BAQDAgXgMD4GA1UdJQQ3MDUG
CCsGAQUFBwMBBggrBgEFBQcDAgYKKwYBBAGCNwoDAwYJYIZIAYb4QgQBBggrBgEF
BQcDBDAfBgNVHSMEGDAWgBSRdzZ7LrRp8yfqt/YIi0ojohFJxjAnBgNVHREEIDAe
gRxhbmRyZWEuY2VjY2FudGlAY25hZi5pbmZuLml0MA0GCSqGSIb3DQEBBQUAA4IB
AQBG/GPwoyqamKwunXeEaIoqmmJhEITsi15FhU9agFpG5yFTAR/IX9sovimxYGBg
CtE9luCyVhBwheLduQRTzPlFnQU/PqF6ag+HLY5D9pTA3YyoIfM0iLykPyGoEOos
VlYklRRDSmmKpUjiX1mX9YncpMzTMCnC83gOrctc/SdDW4/YgJN0rNOm2Be1jWjF
zTiuLS7+8RVayokPhOfdP8i7DSQymgmQt457/Ar3td1WNB9Gl9XhC5noQEQY2Krq
PZis4dhr5y4KvS0aD6U7oslRdbbMhHm50zUAFLbht35kfz7C9h6jAVwaF80NZjOT
TkQ3VkDw5d9y+ZWUIfUOrlyu
-----END CERTIFICATE-----
