Certificate:
    Data:
        Version: 3 (0x2)
        Serial Number: 47 (0x2f)
    Signature Algorithm: sha1WithRSAEncryption
        Issuer: C=IT, O=IGI, CN=Test CA
        Validity
            Not Before: Sep 17 13:33:21 2013 GMT
            Not After : Sep 15 13:33:21 2023 GMT
        Subject: C=IT, O=IGI, CN=load9
        Subject Public Key Info:
            Public Key Algorithm: rsaEncryption
                Public-Key: (2048 bit)
                Modulus:
                    00:aa:42:31:0a:16:a2:7c:c7:d0:87:b6:ee:19:0b:
                    62:e3:f0:60:ec:74:74:c9:0d:39:90:21:81:78:03:
                    9e:ee:2c:8e:9b:ff:2b:e0:e5:da:33:69:7d:46:d3:
                    43:59:86:81:ac:af:b2:55:a0:d6:3c:8f:e2:6b:5a:
                    44:e4:0e:c0:dc:ae:83:ce:b2:a0:ac:43:67:52:66:
                    63:54:67:cb:f2:3a:6a:d1:b5:c7:65:b2:dd:1c:7b:
                    19:86:31:92:c7:f9:a5:9b:1b:25:d2:59:a5:84:34:
                    03:3a:b7:b9:49:87:c2:86:3c:70:91:04:dd:71:06:
                    ae:ff:c8:71:89:0f:e3:3f:38:62:37:a7:8e:ad:5b:
                    6a:03:76:a8:bc:de:b8:ec:47:03:7e:f6:d9:e8:1a:
                    86:d3:5c:8d:c2:46:29:ed:76:ba:7b:96:98:70:90:
                    3a:2b:29:fa:9b:25:60:c4:f3:da:a9:e1:2b:d3:d0:
                    c6:ce:35:f9:92:2c:37:72:f4:11:a2:ab:07:41:e9:
                    4e:b7:42:f5:f7:c5:79:68:d1:40:17:80:f0:0e:af:
                    08:ab:f9:45:86:77:8b:e5:42:94:f2:b1:80:1c:e1:
                    4c:7a:7a:1e:4c:a9:76:53:e9:75:89:99:13:6c:43:
                    2a:05:05:84:e5:03:da:79:02:79:09:cf:9f:2a:ea:
                    04:3b
                Exponent: 65537 (0x10001)
        X509v3 extensions:
            X509v3 Basic Constraints: critical
                CA:FALSE
            X509v3 Subject Key Identifier: 
                A2:2C:E8:54:E3:BB:F2:DA:87:D4:5F:41:7B:8F:BB:31:1D:65:A6:0D
            X509v3 Key Usage: critical
                Digital Signature, Non Repudiation, Key Encipherment
            X509v3 Extended Key Usage: 
                TLS Web Server Authentication, TLS Web Client Authentication, Microsoft Server Gated Crypto, Netscape Server Gated Crypto, E-mail Protection
            X509v3 Authority Key Identifier: 
                keyid:91:77:36:7B:2E:B4:69:F3:27:EA:B7:F6:08:8B:4A:23:A2:11:49:C6

            X509v3 Subject Alternative Name: 
                email:andrea.ceccanti@cnaf.infn.it
    Signature Algorithm: sha1WithRSAEncryption
         d9:b3:7c:5b:4c:c3:6b:a8:91:0a:92:b2:ad:a8:3a:66:81:d3:
         79:e2:55:89:9b:08:a9:8e:e4:f1:12:cb:04:56:da:b7:4a:92:
         9b:fd:27:a9:51:93:73:d3:08:10:85:e9:90:e7:08:59:7c:be:
         87:19:ed:f7:e4:75:1f:3d:73:49:02:25:92:97:b1:48:41:39:
         be:17:58:5e:95:64:9c:52:c5:8f:02:d8:71:42:34:b1:c9:fd:
         0c:c7:81:e3:f1:52:bc:40:47:d4:d7:9a:84:65:5f:e4:40:bd:
         ee:47:b9:d5:d4:08:57:8b:3e:c5:e7:0d:ed:53:ec:0f:43:52:
         47:df:6a:9c:bb:ca:d2:cf:10:33:67:68:ac:92:63:aa:cb:b9:
         72:a6:fe:60:62:62:dc:be:69:55:d1:ee:14:cb:ce:05:52:32:
         8b:cd:7c:35:2a:d6:3f:b4:37:d5:0e:9d:a5:73:2d:c2:0f:75:
         cc:ad:29:8a:e5:ff:61:aa:fd:e4:bb:de:80:fa:0c:b2:06:6e:
         a6:20:b8:b3:0f:f5:4c:33:f3:42:76:19:02:48:4f:ac:b3:46:
         b3:b8:c0:45:da:54:dd:32:c0:c9:ae:a8:4f:59:a9:91:8b:93:
         79:12:fc:9c:ab:cb:07:98:fb:08:97:e4:3d:92:bc:cc:17:9d:
         7d:dc:a2:95
-----BEGIN CERTIFICATE-----
MIIDnjCCAoagAwIBAgIBLzANBgkqhkiG9w0BAQUFADAtMQswCQYDVQQGEwJJVDEM
MAoGA1UECgwDSUdJMRAwDgYDVQQDDAdUZXN0IENBMB4XDTEzMDkxNzEzMzMyMVoX
DTIzMDkxNTEzMzMyMVowKzELMAkGA1UEBhMCSVQxDDAKBgNVBAoTA0lHSTEOMAwG
A1UEAxMFbG9hZDkwggEiMA0GCSqGSIb3DQEBAQUAA4IBDwAwggEKAoIBAQCqQjEK
FqJ8x9CHtu4ZC2Lj8GDsdHTJDTmQIYF4A57uLI6b/yvg5dozaX1G00NZhoGsr7JV
oNY8j+JrWkTkDsDcroPOsqCsQ2dSZmNUZ8vyOmrRtcdlst0cexmGMZLH+aWbGyXS
WaWENAM6t7lJh8KGPHCRBN1xBq7/yHGJD+M/OGI3p46tW2oDdqi83rjsRwN+9tno
GobTXI3CRintdrp7lphwkDorKfqbJWDE89qp4SvT0MbONfmSLDdy9BGiqwdB6U63
QvX3xXlo0UAXgPAOrwir+UWGd4vlQpTysYAc4Ux6eh5MqXZT6XWJmRNsQyoFBYTl
A9p5AnkJz58q6gQ7AgMBAAGjgcowgccwDAYDVR0TAQH/BAIwADAdBgNVHQ4EFgQU
oizoVOO78tqH1F9Be4+7MR1lpg0wDgYDVR0PAQH/BAQDAgXgMD4GA1UdJQQ3MDUG
CCsGAQUFBwMBBggrBgEFBQcDAgYKKwYBBAGCNwoDAwYJYIZIAYb4QgQBBggrBgEF
BQcDBDAfBgNVHSMEGDAWgBSRdzZ7LrRp8yfqt/YIi0ojohFJxjAnBgNVHREEIDAe
gRxhbmRyZWEuY2VjY2FudGlAY25hZi5pbmZuLml0MA0GCSqGSIb3DQEBBQUAA4IB
AQDZs3xbTMNrqJEKkrKtqDpmgdN54lWJmwipjuTxEssEVtq3SpKb/SepUZNz0wgQ
hemQ5whZfL6HGe335HUfPXNJAiWSl7FIQTm+F1helWScUsWPAthxQjSxyf0Mx4Hj
8VK8QEfU15qEZV/kQL3uR7nV1AhXiz7F5w3tU+wPQ1JH32qcu8rSzxAzZ2iskmOq
y7lypv5gYmLcvmlV0e4Uy84FUjKLzXw1KtY/tDfVDp2lcy3CD3XMrSmK5f9hqv3k
u96A+gyyBm6mILizD/VMM/NCdhkCSE+ss0azuMBF2lTdMsDJrqhPWamRi5N5Evyc
q8sHmPsIl+Q9krzMF5193KKV
-----END CERTIFICATE-----
