Certificate:
    Data:
        Version: 3 (0x2)
        Serial Number: 48 (0x30)
    Signature Algorithm: sha1WithRSAEncryption
        Issuer: C=IT, O=IGI, CN=Test CA
        Validity
            Not Before: Sep 17 13:33:22 2013 GMT
            Not After : Sep 15 13:33:22 2023 GMT
        Subject: C=IT, O=IGI, CN=load10
        Subject Public Key Info:
            Public Key Algorithm: rsaEncryption
                Public-Key: (2048 bit)
                Modulus:
                    00:b8:1e:79:80:24:7a:8c:b7:a8:13:0a:9b:09:e6:
                    25:0f:78:16:ab:2d:02:9a:17:ba:77:90:58:fe:96:
                    a0:5b:e6:3a:5b:7f:c5:15:69:3b:fb:0b:31:a7:13:
                    eb:b5:02:10:65:32:1e:3f:f9:73:1c:fb:84:92:0f:
                    39:cf:33:b2:bb:d0:2b:28:b0:96:1b:39:93:37:6c:
                    be:1c:94:97:fb:af:5f:f4:88:a3:ff:5e:40:b5:9e:
                    0f:b8:41:1f:24:22:ac:6a:dd:a6:c5:bd:6a:e2:9d:
                    b9:ce:d1:1e:dc:4a:d9:2f:c0:cc:69:4a:dc:9a:4e:
                    91:67:14:b6:9b:39:5e:14:cb:a9:20:19:4f:04:19:
                    b9:d8:35:6d:9c:e6:5e:e6:17:40:b3:f0:55:72:78:
                    63:79:6f:b1:b9:00:e6:34:2e:85:fe:02:39:84:8b:
                    5d:a4:01:03:cb:88:37:c6:84:8b:94:fe:fc:71:28:
                    2a:15:49:c0:62:a0:d4:d2:41:52:c6:ad:d2:a3:e3:
                    78:59:ec:44:3f:4f:0e:60:bc:2a:44:1e:ae:eb:fb:
                    c2:8d:ff:ef:d9:ff:4e:8b:d1:71:c3:f9:dc:96:51:
                    e8:b8:42:a4:41:14:79:b0:25:dc:cd:29:16:7a:47:
                    7c:89:df:bb:20:77:82:3a:6a:a4:c1:6d:ee:22:57:
                    6a:d7
                Exponent: 65537 (0x10001)
        X509v3 extensions:
            X509v3 Basic Constraints: critical
                CA:FALSE
            X509v3 Subject Key Identifier: 
                E1:4B:FC:30:85:E2:56:A7:4C:C8:E7:84:7C:E1:78:AB:32:D2:3D:C4
            X509v3 Key Usage: critical
                Digital Signature, Non Repudiation, Key Encipherment
            X509v3 Extended Key Usage: 
                TLS Web Server Authentication, TLS Web Client Authentication, Microsoft Server Gated Crypto, Netscape Server Gated Crypto, E-mail Protection
            X509v3 Authority Key Identifier: 
                keyid:91:77:36:7B:2E:B4:69:F3:27:EA:B7:F6:08:8B:4A:23:A2:11:49:C6

            X509v3 Subject Alternative Name: 
                email:andrea.ceccanti@cnaf.infn.it
    Signature Algorithm: sha1WithRSAEncryption
         9e:c7:4c:46:fd:6c:ee:f5:c4:40:00:f1:c1:3e:dc:e7:c6:54:
         12:6c:07:f8:62:16:75:21:ce:33:c1:f8:ce:de:79:a0:f8:ba:
         6b:48:88:1d:81:fb:b2:18:89:16:96:32:b9:cb:1d:fd:32:cb:
         c9:19:ca:a4:8d:2c:46:aa:03:5c:10:33:59:95:cd:c7:b2:f7:
         fb:c6:f3:62:0a:bd:f5:06:8f:d8:6c:60:3d:9d:aa:36:c5:bd:
         b2:c1:b3:6a:7e:08:17:ab:7b:73:90:f2:9d:0b:f2:97:7e:1c:
         fe:60:e7:d4:ca:0b:53:ac:98:5d:5f:43:52:04:ae:b8:30:90:
         35:b5:85:8c:aa:e1:0a:76:0f:29:47:8f:e0:59:be:04:ff:35:
         3f:f4:9b:f2:d5:4e:9e:1f:00:70:82:52:7e:a7:0d:81:27:d6:
         67:ed:9c:17:9f:93:03:05:00:f2:35:f1:67:b4:56:21:50:66:
         87:c2:d8:26:ac:e7:fd:90:b0:54:f8:65:20:86:88:05:28:0b:
         6e:55:e4:18:49:fa:d1:e4:1c:00:b3:19:bf:4b:f1:a2:ba:bc:
         3e:33:d5:c1:85:bb:85:93:eb:8f:a3:a5:f7:86:6e:fd:62:66:
         32:20:0f:07:6d:13:5a:ba:11:4d:aa:5d:73:81:cf:09:ea:92:
         d5:9e:93:fa
-----BEGIN CERTIFICATE-----
MIIDnzCCAoegAwIBAgIBMDANBgkqhkiG9w0BAQUFADAtMQswCQYDVQQGEwJJVDEM
MAoGA1UECgwDSUdJMRAwDgYDVQQDDAdUZXN0IENBMB4XDTEzMDkxNzEzMzMyMloX
DTIzMDkxNTEzMzMyMlowLDELMAkGA1UEBhMCSVQxDDAKBgNVBAoTA0lHSTEPMA0G
A1UEAxMGbG9hZDEwMIIBIjANBgkqhkiG9w0BAQEFAAOCAQ8AMIIBCgKCAQEAuB55
gCR6jLeoEwqbCeYlD3gWqy0Cmhe6d5BY/pagW+Y6W3/FFWk7+wsxpxPrtQIQZTIe
P/lzHPuEkg85zzOyu9ArKLCWGzmTN2y+HJSX+69f9Iij/15AtZ4PuEEfJCKsat2m
xb1q4p25ztEe3ErZL8DMaUrcmk6RZxS2mzleFMupIBlPBBm52DVtnOZe5hdAs/BV
cnhjeW+xuQDmNC6F/gI5hItdpAEDy4g3xoSLlP78cSgqFUnAYqDU0kFSxq3So+N4
WexEP08OYLwqRB6u6/vCjf/v2f9Oi9Fxw/ncllHouEKkQRR5sCXczSkWekd8id+7
IHeCOmqkwW3uIldq1wIDAQABo4HKMIHHMAwGA1UdEwEB/wQCMAAwHQYDVR0OBBYE
FOFL/DCF4lanTMjnhHzheKsy0j3EMA4GA1UdDwEB/wQEAwIF4DA+BgNVHSUENzA1
BggrBgEFBQcDAQYIKwYBBQUHAwIGCisGAQQBgjcKAwMGCWCGSAGG+EIEAQYIKwYB
BQUHAwQwHwYDVR0jBBgwFoAUkXc2ey60afMn6rf2CItKI6IRScYwJwYDVR0RBCAw
HoEcYW5kcmVhLmNlY2NhbnRpQGNuYWYuaW5mbi5pdDANBgkqhkiG9w0BAQUFAAOC
AQEAnsdMRv1s7vXEQADxwT7c58ZUEmwH+GIWdSHOM8H4zt55oPi6a0iIHYH7shiJ
FpYyucsd/TLLyRnKpI0sRqoDXBAzWZXNx7L3+8bzYgq99QaP2GxgPZ2qNsW9ssGz
an4IF6t7c5DynQvyl34c/mDn1MoLU6yYXV9DUgSuuDCQNbWFjKrhCnYPKUeP4Fm+
BP81P/Sb8tVOnh8AcIJSfqcNgSfWZ+2cF5+TAwUA8jXxZ7RWIVBmh8LYJqzn/ZCw
VPhlIIaIBSgLblXkGEn60eQcALMZv0vxorq8PjPVwYW7hZPrj6Ol94Zu/WJmMiAP
B20TWroRTapdc4HPCeqS1Z6T+g==
-----END CERTIFICATE-----
