Certificate:
    Data:
        Version: 3 (0x2)
        Serial Number: 50 (0x32)
    Signature Algorithm: sha1WithRSAEncryption
        Issuer: C=IT, O=IGI, CN=Test CA
        Validity
            Not Before: Sep 17 13:33:24 2013 GMT
            Not After : Sep 15 13:33:24 2023 GMT
        Subject: C=IT, O=IGI, CN=load12
        Subject Public Key Info:
            Public Key Algorithm: rsaEncryption
                Public-Key: (2048 bit)
                Modulus:
                    00:bd:2d:e2:38:2a:c3:77:fb:5f:29:38:f3:47:18:
                    fd:69:a8:35:99:03:7f:d0:83:a9:dd:eb:f7:ff:ce:
                    a0:73:9d:af:50:26:15:0b:eb:52:a4:24:57:32:58:
                    af:2d:3c:61:77:07:99:30:16:e6:43:95:5f:51:30:
                    62:21:07:91:96:bc:5c:07:83:35:c8:35:61:40:df:
                    e0:0e:ca:d3:3e:0d:fa:cb:0b:5e:3b:9b:3e:ad:f4:
                    85:40:dc:57:83:bb:27:bd:b3:b5:1f:a4:35:87:9a:
                    22:24:51:d1:47:2e:32:78:46:f6:7c:53:95:61:4e:
                    e9:33:3e:29:a7:ed:be:70:30:9a:62:be:d8:cd:18:
                    f1:a6:4c:73:43:d7:62:c1:69:cb:c2:5f:a9:f5:75:
                    c2:d8:c8:cb:9d:5a:90:44:5e:49:68:29:34:64:11:
                    39:9e:50:39:24:43:89:04:31:2a:e9:51:39:ff:18:
                    c9:2b:fb:6a:90:f3:32:6e:d6:1d:5d:31:12:15:13:
                    42:03:1d:86:37:b8:d7:73:d0:82:e6:c2:66:cf:66:
                    31:8a:0e:39:27:ac:34:e6:18:0d:fa:b6:3a:8e:50:
                    5d:ca:4c:d1:84:14:1e:7d:b9:77:4d:39:79:79:38:
                    12:68:3b:aa:47:e5:dc:d3:e1:d3:9d:ad:de:e6:6b:
                    36:69
                Exponent: 65537 (0x10001)
        X509v3 extensions:
            X509v3 Basic Constraints: critical
                CA:FALSE
            X509v3 Subject Key Identifier: 
                84:CA:28:A1:E9:9B:78:FD:E5:77:29:24:96:AB:CA:30:78:2D:12:A8
            X509v3 Key Usage: critical
                Digital Signature, Non Repudiation, Key Encipherment
            X509v3 Extended Key Usage: 
                TLS Web Server Authentication, TLS Web Client Authentication, Microsoft Server Gated Crypto, Netscape Server Gated Crypto, E-mail Protection
            X509v3 Authority Key Identifier: 
                keyid:91:77:36:7B:2E:B4:69:F3:27:EA:B7:F6:08:8B:4A:23:A2:11:49:C6

            X509v3 Subject Alternative Name: 
                email:andrea.ceccanti@cnaf.infn.it
    Signature Algorithm: sha1WithRSAEncryption
         45:96:bb:3d:09:d2:5d:da:20:e1:6c:ff:d2:8e:5b:04:f5:aa:
         7d:47:ed:a1:d7:45:34:f2:33:83:29:21:83:97:99:1e:09:eb:
         1e:49:08:ec:c6:3e:59:ec:1e:a6:99:ab:cc:75:0b:0e:a8:25:
         60:0d:03:4e:1f:a1:15:14:94:df:9c:72:54:42:02:33:3c:90:
         7a:6f:0d:a7:bf:25:6d:9c:6c:92:70:be:7f:35:ac:e6:c7:21:
         f5:53:df:0a:9b:75:35:c3:9c:08:50:d2:71:5e:21:8d:50:e4:
         4d:92:18:4c:73:06:60:9e:e6:bb:f0:d3:bc:1c:e4:7c:e6:40:
         6e:b0:d2:f3:db:bd:8e:27:27:e7:f0:7b:8e:37:76:d7:0e:15:
         b2:98:6f:d9:37:8f:9b:a9:4b:3e:e6:57:1a:32:29:15:b5:5c:
         ed:ab:80:02:08:ed:d7:18:00:b5:97:b6:45:b8:05:5f:a0:f8:
         96:f1:23:62:9c:f9:55:ce:1f:73:aa:f0:c3:d8:2b:de:59:59:
         06:2c:a0:c1:ab:eb:46:68:fb:79:32:81:2b:5f:8e:7e:4f:4e:
         fd:88:10:14:8f:98:4e:9d:73:21:cc:c5:12:40:16:1d:99:d8:
         a8:5d:a7:b0:dd:11:14:80:e4:bc:0e:78:4d:d0:b4:b3:0d:6f:
         44:92:6d:98
-----BEGIN CERTIFICATE-----
MIIDnzCCAoegAwIBAgIBMjANBgkqhkiG9w0BAQUFADAtMQswCQYDVQQGEwJJVDEM
MAoGA1UECgwDSUdJMRAwDgYDVQQDDAdUZXN0IENBMB4XDTEzMDkxNzEzMzMyNFoX
DTIzMDkxNTEzMzMyNFowLDELMAkGA1UEBhMCSVQxDDAKBgNVBAoTA0lHSTEPMA0G
A1UEAxMGbG9hZDEyMIIBIjANBgkqhkiG9w0BAQEFAAOCAQ8AMIIBCgKCAQEAvS3i
OCrDd/tfKTjzRxj9aag1mQN/0IOp3ev3/86gc52vUCYVC+tSpCRXMlivLTxhdweZ
MBbmQ5VfUTBiIQeRlrxcB4M1yDVhQN/gDsrTPg36ywteO5s+rfSFQNxXg7snvbO1
H6Q1h5oiJFHRRy4yeEb2fFOVYU7pMz4pp+2+cDCaYr7YzRjxpkxzQ9diwWnLwl+p
9XXC2MjLnVqQRF5JaCk0ZBE5nlA5JEOJBDEq6VE5/xjJK/tqkPMybtYdXTESFRNC
Ax2GN7jXc9CC5sJmz2Yxig45J6w05hgN+rY6jlBdykzRhBQefbl3TTl5eTgSaDuq
R+Xc0+HTna3e5ms2aQIDAQABo4HKMIHHMAwGA1UdEwEB/wQCMAAwHQYDVR0OBBYE
FITKKKHpm3j95XcpJJaryjB4LRKoMA4GA1UdDwEB/wQEAwIF4DA+BgNVHSUENzA1
BggrBgEFBQcDAQYIKwYBBQUHAwIGCisGAQQBgjcKAwMGCWCGSAGG+EIEAQYIKwYB
BQUHAwQwHwYDVR0jBBgwFoAUkXc2ey60afMn6rf2CItKI6IRScYwJwYDVR0RBCAw
HoEcYW5kcmVhLmNlY2NhbnRpQGNuYWYuaW5mbi5pdDANBgkqhkiG9w0BAQUFAAOC
AQEARZa7PQnSXdog4Wz/0o5bBPWqfUftoddFNPIzgykhg5eZHgnrHkkI7MY+Wewe
ppmrzHULDqglYA0DTh+hFRSU35xyVEICMzyQem8Np78lbZxsknC+fzWs5sch9VPf
Cpt1NcOcCFDScV4hjVDkTZIYTHMGYJ7mu/DTvBzkfOZAbrDS89u9jicn5/B7jjd2
1w4Vsphv2TePm6lLPuZXGjIpFbVc7auAAgjt1xgAtZe2RbgFX6D4lvEjYpz5Vc4f
c6rww9gr3llZBiygwavrRmj7eTKBK1+Ofk9O/YgQFI+YTp1zIczFEkAWHZnYqF2n
sN0RFIDkvA54TdC0sw1vRJJtmA==
-----END CERTIFICATE-----
