Certificate:
    Data:
        Version: 3 (0x2)
        Serial Number: 49 (0x31)
    Signature Algorithm: sha1WithRSAEncryption
        Issuer: C=IT, O=IGI, CN=Test CA
        Validity
            Not Before: Sep 17 13:33:22 2013 GMT
            Not After : Sep 15 13:33:22 2023 GMT
        Subject: C=IT, O=IGI, CN=load11
        Subject Public Key Info:
            Public Key Algorithm: rsaEncryption
                Public-Key: (2048 bit)
                Modulus:
                    00:d7:91:f4:1d:b8:26:a1:86:37:cd:a4:80:c6:67:
                    e0:c1:27:ad:e7:49:69:74:5c:24:e2:fb:29:65:59:
                    61:b5:52:e8:ec:f7:b0:30:d8:0d:e7:24:0c:e0:2f:
                    7f:d1:c0:d4:6c:44:49:a6:6d:0e:29:8c:11:a5:8d:
                    18:7e:a7:7c:c8:2b:56:23:53:8f:37:61:61:77:f0:
                    83:7f:82:e2:4e:b9:ad:d0:e6:ed:2b:de:96:d0:c4:
                    85:4e:39:f5:7a:3c:73:9f:1a:9b:5d:b0:e8:aa:12:
                    60:bd:d4:94:93:7e:b3:2c:c3:78:d8:26:b3:06:3c:
                    0b:26:31:ea:5b:96:eb:68:38:36:f5:ff:ca:ae:6e:
                    e8:eb:27:84:9d:52:7e:46:12:b2:b5:0c:1c:07:c0:
                    ec:df:25:1b:0c:60:2d:b2:e8:1e:de:5c:01:57:c5:
                    89:9d:87:a8:f6:80:b8:c9:d6:8c:1b:4a:35:c1:3f:
                    08:93:4d:99:ea:ff:e0:b9:2e:3e:dc:e4:80:01:d7:
                    9b:3c:b4:82:c2:c1:b2:0e:f0:8c:c0:a7:50:ea:a8:
                    b7:b0:9d:e7:07:0a:7a:08:b9:fc:fd:3a:3f:3a:38:
                    7e:8a:9c:88:6c:17:44:44:06:aa:f5:84:9e:f2:ac:
                    ab:4a:8e:ec:6f:c6:95:f7:8a:a2:42:cf:01:76:a7:
                    4a:3f
                Exponent: 65537 (0x10001)
        X509v3 extensions:
            X509v3 Basic Constraints: critical
                CA:FALSE
            X509v3 Subject Key Identifier: 
                76:64:C0:3F:6B:3E:E0:CE:7C:79:A0:AE:30:46:9F:0B:A0:B6:35:8E
            X509v3 Key Usage: critical
                Digital Signature, Non Repudiation, Key Encipherment
            X509v3 Extended Key Usage: 
                TLS Web Server Authentication, TLS Web Client Authentication, Microsoft Server Gated Crypto, Netscape Server Gated Crypto, E-mail Protection
            X509v3 Authority Key Identifier: 
                keyid:91:77:36:7B:2E:B4:69:F3:27:EA:B7:F6:08:8B:4A:23:A2:11:49:C6

            X509v3 Subject Alternative Name: 
                email:andrea.ceccanti@cnaf.infn.it
    Signature Algorithm: sha1WithRSAEncryption
         1c:74:97:12:49:32:c6:c9:49:7c:61:5e:f2:d6:dc:e0:c9:fc:
         fd:48:b9:25:8d:13:0c:79:2d:de:59:71:c4:81:d8:fb:dd:7e:
         6a:67:04:51:0b:93:15:1d:09:50:9e:b7:88:82:e7:dc:4a:f1:
         b9:3b:59:16:bb:e3:24:ba:43:a4:f8:c6:a7:e1:5b:a4:de:00:
         ef:66:d1:0c:e1:93:3e:75:8c:f7:8d:c7:88:09:02:f6:44:c0:
         6a:7e:ce:70:c2:a8:14:e9:5a:cf:09:58:80:f8:19:61:81:75:
         f6:eb:2e:87:09:70:54:65:fc:6c:aa:06:fc:f5:40:fb:9a:82:
         8e:92:c0:7e:64:a8:fa:fd:f5:1b:32:7e:e7:c2:14:d1:d7:75:
         f9:1b:d7:a5:f0:b4:5b:59:5c:fe:11:46:13:b0:79:29:3e:fa:
         c7:d7:f6:12:1a:1b:fc:92:55:61:28:15:23:32:fd:26:66:6c:
         50:7b:a0:a0:ba:1d:28:9d:20:fd:a5:5f:a4:0c:81:6d:81:dc:
         2e:c8:6c:6b:7a:e9:b5:d8:bd:7d:45:71:fd:79:25:32:a5:a8:
         92:60:66:7d:f4:ac:4f:44:4f:d3:dc:ba:91:12:24:3c:07:6c:
         c3:49:83:29:99:8a:c2:e7:f5:fb:5d:6b:7d:c9:cf:13:26:ae:
         32:86:bd:08
-----BEGIN CERTIFICATE-----
MIIDnzCCAoegAwIBAgIBMTANBgkqhkiG9w0BAQUFADAtMQswCQYDVQQGEwJJVDEM
MAoGA1UECgwDSUdJMRAwDgYDVQQDDAdUZXN0IENBMB4XDTEzMDkxNzEzMzMyMloX
DTIzMDkxNTEzMzMyMlowLDELMAkGA1UEBhMCSVQxDDAKBgNVBAoTA0lHSTEPMA0G
A1UEAxMGbG9hZDExMIIBIjANBgkqhkiG9w0BAQEFAAOCAQ8AMIIBCgKCAQEA15H0
HbgmoYY3zaSAxmfgwSet50lpdFwk4vspZVlhtVLo7PewMNgN5yQM4C9/0cDUbERJ
pm0OKYwRpY0Yfqd8yCtWI1OPN2Fhd/CDf4LiTrmt0ObtK96W0MSFTjn1ejxznxqb
XbDoqhJgvdSUk36zLMN42CazBjwLJjHqW5braDg29f/Krm7o6yeEnVJ+RhKytQwc
B8Ds3yUbDGAtsuge3lwBV8WJnYeo9oC4ydaMG0o1wT8Ik02Z6v/guS4+3OSAAdeb
PLSCwsGyDvCMwKdQ6qi3sJ3nBwp6CLn8/To/Ojh+ipyIbBdERAaq9YSe8qyrSo7s
b8aV94qiQs8BdqdKPwIDAQABo4HKMIHHMAwGA1UdEwEB/wQCMAAwHQYDVR0OBBYE
FHZkwD9rPuDOfHmgrjBGnwugtjWOMA4GA1UdDwEB/wQEAwIF4DA+BgNVHSUENzA1
BggrBgEFBQcDAQYIKwYBBQUHAwIGCisGAQQBgjcKAwMGCWCGSAGG+EIEAQYIKwYB
BQUHAwQwHwYDVR0jBBgwFoAUkXc2ey60afMn6rf2CItKI6IRScYwJwYDVR0RBCAw
HoEcYW5kcmVhLmNlY2NhbnRpQGNuYWYuaW5mbi5pdDANBgkqhkiG9w0BAQUFAAOC
AQEAHHSXEkkyxslJfGFe8tbc4Mn8/Ui5JY0TDHkt3llxxIHY+91+amcEUQuTFR0J
UJ63iILn3ErxuTtZFrvjJLpDpPjGp+FbpN4A72bRDOGTPnWM943HiAkC9kTAan7O
cMKoFOlazwlYgPgZYYF19usuhwlwVGX8bKoG/PVA+5qCjpLAfmSo+v31GzJ+58IU
0dd1+RvXpfC0W1lc/hFGE7B5KT76x9f2Ehob/JJVYSgVIzL9JmZsUHugoLodKJ0g
/aVfpAyBbYHcLshsa3rptdi9fUVx/XklMqWokmBmffSsT0RP09y6kRIkPAdsw0mD
KZmKwuf1+11rfcnPEyauMoa9CA==
-----END CERTIFICATE-----
