Certificate:
    Data:
        Version: 3 (0x2)
        Serial Number: 8 (0x8)
    Signature Algorithm: sha1WithRSAEncryption
        Issuer: C=IT, O=IGI, CN=Test CA
        Validity
            Not Before: Sep 26 15:38:49 2012 GMT
            Not After : Sep 24 15:38:49 2022 GMT
        Subject: C=IT, O=IGI, CN=no-basic-constraints
        Subject Public Key Info:
            Public Key Algorithm: rsaEncryption
                Public-Key: (2048 bit)
                Modulus:
                    00:a8:70:11:e4:df:03:a5:de:20:32:bd:29:ef:bf:
                    bb:4b:99:6f:30:14:0e:5b:26:b5:30:7d:0d:f3:9f:
                    47:d3:d0:22:9c:5d:d5:39:40:9d:b2:79:31:9b:a9:
                    29:b2:c3:1c:bf:4c:f9:b0:57:f4:20:12:61:f0:e4:
                    94:63:2e:59:a6:8d:f7:5d:ba:88:40:c8:58:26:58:
                    c3:43:a2:5d:86:32:ee:a3:85:35:3d:5d:65:45:90:
                    ea:5d:75:87:f3:f8:25:92:24:0f:f3:36:9a:12:5f:
                    ae:f4:7f:b0:14:af:55:28:11:22:05:67:0c:b9:ff:
                    5f:e0:de:dd:07:97:e8:52:03:c8:82:05:f7:9b:ba:
                    fc:96:3e:44:f3:5e:c2:16:fa:67:20:11:7d:5f:e5:
                    9b:c8:e5:7e:61:35:1c:ca:9b:2d:f5:b3:cd:08:9b:
                    6a:ec:3c:ac:41:97:df:4f:6d:25:18:97:3e:14:3f:
                    d8:19:c7:62:09:be:e3:01:15:22:80:61:aa:da:6e:
                    d3:d2:8f:c6:e6:fc:af:17:2a:db:d1:ee:64:1f:29:
                    e6:a0:fd:f0:c8:c4:c5:a2:67:b8:f6:49:3e:0a:66:
                    3d:09:7b:64:31:7c:23:28:90:ed:87:1c:a2:09:fc:
                    84:f3:6a:d1:43:22:8a:3a:0e:83:fc:54:5e:cf:0c:
                    16:b5
                Exponent: 65537 (0x10001)
        X509v3 extensions:
            X509v3 Subject Key Identifier: 
                65:77:63:B4:20:F1:AB:A4:B2:54:A2:3A:F4:71:01:4B:97:16:81:68
            X509v3 Key Usage: critical
                Digital Signature, Non Repudiation, Key Encipherment
            X509v3 Extended Key Usage: 
                TLS Web Server Authentication, TLS Web Client Authentication, Microsoft Server Gated Crypto, Netscape Server Gated Crypto, E-mail Protection
            X509v3 Authority Key Identifier: 
                keyid:91:77:36:7B:2E:B4:69:F3:27:EA:B7:F6:08:8B:4A:23:A2:11:49:C6

            X509v3 Subject Alternative Name: 
                email:andrea.ceccanti@cnaf.infn.it
    Signature Algorithm: sha1WithRSAEncryption
         c7:34:e0:9a:7e:b4:c1:a1:7b:af:dd:1d:76:2b:6d:d0:d2:b1:
         9a:c8:11:28:c1:0a:a7:63:2c:49:c6:42:d4:ac:d4:8c:04:07:
         f1:89:91:a3:3f:a6:ba:a2:5d:da:4d:a0:4b:5a:7f:31:e9:8c:
         31:3b:d9:4e:f0:f8:24:4e:9f:0f:7e:ed:c2:21:fa:7b:81:bc:
         55:23:ce:58:42:8f:f8:7b:da:d3:fb:7d:ae:82:1c:b1:98:3d:
         be:5e:02:9f:a7:94:c6:ee:cd:a5:ca:66:c0:27:f0:b9:f8:5e:
         aa:5a:48:85:6e:c8:70:f4:62:29:bf:5e:56:d8:18:38:3e:07:
         79:e6:e1:6d:35:2d:b1:69:be:1a:78:bd:9a:24:42:e1:8e:46:
         e2:ea:df:ea:3b:37:c8:c0:f9:b9:cd:de:6d:8b:17:c8:47:f3:
         78:86:db:23:34:a4:b4:f5:86:8d:ca:44:7c:d5:d8:90:25:5a:
         a7:22:cd:65:c4:b7:8d:6f:81:4e:02:d9:9a:0a:7d:5b:aa:c7:
         41:5b:e4:3d:28:05:fd:f6:cb:c7:24:67:30:65:e6:f1:06:d8:
         d3:6f:15:59:18:20:ed:7f:f8:a9:84:07:4a:df:06:e0:b4:21:
         da:f9:92:4e:69:97:90:bc:63:57:61:f8:31:2e:23:6d:29:51:
         99:15:a6:50
-----BEGIN CERTIFICATE-----
MIIDnzCCAoegAwIBAgIBCDANBgkqhkiG9w0BAQUFADAtMQswCQYDVQQGEwJJVDEM
MAoGA1UECgwDSUdJMRAwDgYDVQQDDAdUZXN0IENBMB4XDTEyMDkyNjE1Mzg0OVoX
DTIyMDkyNDE1Mzg0OVowOjELMAkGA1UEBhMCSVQxDDAKBgNVBAoTA0lHSTEdMBsG
A1UEAxMUbm8tYmFzaWMtY29uc3RyYWludHMwggEiMA0GCSqGSIb3DQEBAQUAA4IB
DwAwggEKAoIBAQCocBHk3wOl3iAyvSnvv7tLmW8wFA5bJrUwfQ3zn0fT0CKcXdU5
QJ2yeTGbqSmywxy/TPmwV/QgEmHw5JRjLlmmjfdduohAyFgmWMNDol2GMu6jhTU9
XWVFkOpddYfz+CWSJA/zNpoSX670f7AUr1UoESIFZwy5/1/g3t0Hl+hSA8iCBfeb
uvyWPkTzXsIW+mcgEX1f5ZvI5X5hNRzKmy31s80Im2rsPKxBl99PbSUYlz4UP9gZ
x2IJvuMBFSKAYarabtPSj8bm/K8XKtvR7mQfKeag/fDIxMWiZ7j2ST4KZj0Je2Qx
fCMokO2HHKIJ/ITzatFDIoo6DoP8VF7PDBa1AgMBAAGjgbwwgbkwHQYDVR0OBBYE
FGV3Y7Qg8aukslSiOvRxAUuXFoFoMA4GA1UdDwEB/wQEAwIF4DA+BgNVHSUENzA1
BggrBgEFBQcDAQYIKwYBBQUHAwIGCisGAQQBgjcKAwMGCWCGSAGG+EIEAQYIKwYB
BQUHAwQwHwYDVR0jBBgwFoAUkXc2ey60afMn6rf2CItKI6IRScYwJwYDVR0RBCAw
HoEcYW5kcmVhLmNlY2NhbnRpQGNuYWYuaW5mbi5pdDANBgkqhkiG9w0BAQUFAAOC
AQEAxzTgmn60waF7r90dditt0NKxmsgRKMEKp2MsScZC1KzUjAQH8YmRoz+muqJd
2k2gS1p/MemMMTvZTvD4JE6fD37twiH6e4G8VSPOWEKP+Hva0/t9roIcsZg9vl4C
n6eUxu7NpcpmwCfwufheqlpIhW7IcPRiKb9eVtgYOD4HeebhbTUtsWm+Gni9miRC
4Y5G4urf6js3yMD5uc3ebYsXyEfzeIbbIzSktPWGjcpEfNXYkCVapyLNZcS3jW+B
TgLZmgp9W6rHQVvkPSgF/fbLxyRnMGXm8QbY028VWRgg7X/4qYQHSt8G4LQh2vmS
TmmXkLxjV2H4MS4jbSlRmRWmUA==
-----END CERTIFICATE-----
