Certificate:
    Data:
        Version: 3 (0x2)
        Serial Number: 7 (0x7)
    Signature Algorithm: sha1WithRSAEncryption
        Issuer: C=IT, O=IGI, CN=Test CA
        Validity
            Not Before: Sep 26 15:37:51 2012 GMT
            Not After : Sep 24 15:37:51 2022 GMT
        Subject: C=IT, O=IGI, CN=no-key-usage
        Subject Public Key Info:
            Public Key Algorithm: rsaEncryption
                Public-Key: (2048 bit)
                Modulus:
                    00:9e:cd:a9:df:93:78:82:05:c9:b7:99:ca:0d:7e:
                    93:0f:ed:50:26:ab:58:b9:9d:88:d5:76:66:62:b7:
                    c2:4b:37:64:e1:48:f1:b6:03:41:31:91:72:b9:d3:
                    09:40:9c:b8:d9:cd:7a:55:15:3a:da:dc:a7:3a:17:
                    7e:76:2d:9a:08:3f:e2:f6:f8:c2:09:98:df:7c:89:
                    f5:6f:50:65:65:9d:f5:08:e7:19:96:d8:5f:ea:99:
                    e0:1b:f0:26:2a:e3:dd:42:d9:5e:e3:55:b7:8c:74:
                    11:dd:28:83:91:b7:6c:b3:0a:af:59:50:69:93:c9:
                    f6:c8:aa:52:36:bf:43:e5:93:30:55:fc:b0:e0:23:
                    91:8d:f2:8f:7f:cc:7f:03:44:6d:e8:34:a8:8d:d7:
                    1b:ff:35:ce:2a:07:7d:05:ad:ca:c4:d7:18:49:a6:
                    f4:8f:f2:a0:8c:74:4f:df:17:da:20:6d:28:82:d7:
                    36:3a:3b:36:d7:3e:0c:69:e8:6b:ff:10:ab:f2:ff:
                    2a:f0:fc:df:2d:32:7f:27:cd:7a:89:e9:02:67:ca:
                    6d:49:c1:5c:8e:2f:ea:8d:ab:8b:c9:1a:99:c6:3e:
                    70:5a:2e:c3:2e:d6:e4:ab:9c:b3:c4:c5:71:10:0b:
                    ed:13:b8:b7:f5:ed:68:83:39:17:1f:3e:34:1d:f1:
                    40:7b
                Exponent: 65537 (0x10001)
        X509v3 extensions:
            X509v3 Basic Constraints: critical
                CA:FALSE
            X509v3 Subject Key Identifier: 
                1A:CE:54:6A:98:B9:DA:A1:E4:C1:74:2D:F2:DF:11:04:0E:D9:6F:DA
            X509v3 Authority Key Identifier: 
                keyid:91:77:36:7B:2E:B4:69:F3:27:EA:B7:F6:08:8B:4A:23:A2:11:49:C6

            X509v3 Subject Alternative Name: 
                email:andrea.ceccanti@cnaf.infn.it
    Signature Algorithm: sha1WithRSAEncryption
         aa:99:a8:8f:78:7b:7d:d6:04:f8:93:26:8c:d9:dd:3d:f6:4b:
         5a:11:40:54:c8:49:3e:af:a2:18:8b:dd:cd:48:50:bf:90:1d:
         94:25:7d:7f:28:3c:59:31:0e:83:ef:e7:01:27:35:ff:a2:e6:
         2a:29:6e:49:ee:29:6c:2c:bd:05:be:7c:22:82:41:57:b4:17:
         a0:6c:aa:0a:14:1b:32:87:e5:ec:d6:75:ec:7c:fa:4f:be:40:
         9c:f0:ed:3f:04:e2:51:2c:30:be:21:bc:55:9d:22:be:cc:32:
         4d:f9:d6:e6:77:22:19:3f:b6:62:df:83:f0:0c:f6:d2:66:7b:
         5e:d5:42:70:a1:cf:2d:dd:97:42:12:73:c5:e3:2f:d6:78:b4:
         49:35:ec:45:71:55:01:c8:7e:b2:b4:c8:16:de:3a:1c:14:93:
         11:f4:52:4d:46:45:13:43:3b:55:25:76:0a:80:3d:34:74:49:
         07:e1:e6:e2:fe:e4:0e:40:72:d0:d1:4d:a0:2c:fc:f9:aa:c9:
         87:39:5e:1f:74:5e:ca:cf:0f:0b:ca:f0:2d:e1:ca:d7:d1:82:
         9d:b0:fa:ff:b0:96:92:56:81:e4:7d:d6:58:aa:3d:36:9a:b5:
         91:67:1b:04:2b:23:db:19:24:f7:ea:bd:0c:d7:a4:0f:f8:1f:
         4c:65:58:1b
-----BEGIN CERTIFICATE-----
MIIDUzCCAjugAwIBAgIBBzANBgkqhkiG9w0BAQUFADAtMQswCQYDVQQGEwJJVDEM
MAoGA1UECgwDSUdJMRAwDgYDVQQDDAdUZXN0IENBMB4XDTEyMDkyNjE1Mzc1MVoX
DTIyMDkyNDE1Mzc1MVowMjELMAkGA1UEBhMCSVQxDDAKBgNVBAoTA0lHSTEVMBMG
A1UEAxMMbm8ta2V5LXVzYWdlMIIBIjANBgkqhkiG9w0BAQEFAAOCAQ8AMIIBCgKC
AQEAns2p35N4ggXJt5nKDX6TD+1QJqtYuZ2I1XZmYrfCSzdk4UjxtgNBMZFyudMJ
QJy42c16VRU62tynOhd+di2aCD/i9vjCCZjffIn1b1BlZZ31COcZlthf6pngG/Am
KuPdQtle41W3jHQR3SiDkbdsswqvWVBpk8n2yKpSNr9D5ZMwVfyw4CORjfKPf8x/
A0Rt6DSojdcb/zXOKgd9Ba3KxNcYSab0j/KgjHRP3xfaIG0ogtc2Ojs21z4Maehr
/xCr8v8q8PzfLTJ/J816iekCZ8ptScFcji/qjauLyRqZxj5wWi7DLtbkq5yzxMVx
EAvtE7i39e1ogzkXHz40HfFAewIDAQABo3kwdzAMBgNVHRMBAf8EAjAAMB0GA1Ud
DgQWBBQazlRqmLnaoeTBdC3y3xEEDtlv2jAfBgNVHSMEGDAWgBSRdzZ7LrRp8yfq
t/YIi0ojohFJxjAnBgNVHREEIDAegRxhbmRyZWEuY2VjY2FudGlAY25hZi5pbmZu
Lml0MA0GCSqGSIb3DQEBBQUAA4IBAQCqmaiPeHt91gT4kyaM2d099ktaEUBUyEk+
r6IYi93NSFC/kB2UJX1/KDxZMQ6D7+cBJzX/ouYqKW5J7ilsLL0FvnwigkFXtBeg
bKoKFBsyh+Xs1nXsfPpPvkCc8O0/BOJRLDC+IbxVnSK+zDJN+dbmdyIZP7Zi34Pw
DPbSZnte1UJwoc8t3ZdCEnPF4y/WeLRJNexFcVUByH6ytMgW3jocFJMR9FJNRkUT
QztVJXYKgD00dEkH4ebi/uQOQHLQ0U2gLPz5qsmHOV4fdF7Kzw8LyvAt4crX0YKd
sPr/sJaSVoHkfdZYqj02mrWRZxsEKyPbGST36r0M16QP+B9MZVgb
-----END CERTIFICATE-----
