Certificate:
    Data:
        Version: 3 (0x2)
        Serial Number: 14 (0xe)
    Signature Algorithm: sha1WithRSAEncryption
        Issuer: C=IT, O=IGI, CN=Test CA
        Validity
            Not Before: Oct  1 13:27:51 2022 GMT
            Not After : Sep 28 13:27:51 2032 GMT
        Subject: C=IT, O=IGI, CN=three   spaces
        Subject Public Key Info:
            Public Key Algorithm: rsaEncryption
                Public-Key: (2048 bit)
                Modulus:
                    00:ad:d6:a3:6b:a4:f2:a0:7b:bd:1a:c4:01:d7:98:
                    64:99:2d:58:89:3f:4e:2c:a8:13:8e:c4:93:b6:ba:
                    70:f7:e1:f9:17:f3:4d:7f:be:a4:29:f3:7f:78:50:
                    80:06:f4:69:c1:8a:e7:1a:6a:a6:08:fe:13:0e:5c:
                    d3:00:66:9b:f8:32:51:02:da:2d:23:22:49:11:3f:
                    41:36:72:cc:30:34:2b:2e:b7:43:11:46:01:98:d1:
                    7d:15:eb:85:ed:1e:27:ea:94:de:cc:71:89:90:0d:
                    82:57:25:e4:bb:24:49:ae:e1:ae:f1:bd:8a:ed:52:
                    e2:71:d5:09:4f:8d:5f:82:91:c9:3b:49:13:6f:5e:
                    c2:73:99:5f:2d:bb:17:ef:ae:0d:26:5e:e5:22:59:
                    eb:ab:fb:8b:8c:a8:83:7c:1c:fd:3c:21:d1:93:70:
                    d1:93:e7:fc:7f:b1:dd:7f:c0:36:a5:bb:0b:03:28:
                    92:d5:7a:ff:a6:f8:3d:63:25:d4:09:7a:5e:20:7e:
                    5b:cb:cd:7f:c0:dd:d3:c1:03:f8:34:10:2e:17:83:
                    41:32:8e:9a:56:b4:dd:09:1f:f3:bb:b6:7a:93:7a:
                    8a:a5:4c:1a:d3:3c:7d:3d:b6:6d:b7:7a:56:69:d5:
                    ba:ea:c0:c2:e3:a3:d1:da:8e:f3:47:66:53:9e:96:
                    b2:69
                Exponent: 65537 (0x10001)
        X509v3 extensions:
            X509v3 Basic Constraints: critical
                CA:FALSE
            X509v3 Subject Key Identifier: 
                A3:46:44:D0:55:2E:B3:6A:EC:8D:7A:4A:96:E3:81:ED:83:DC:8E:EA
            X509v3 Key Usage: critical
                Digital Signature, Non Repudiation, Key Encipherment
            X509v3 Extended Key Usage: 
                TLS Web Server Authentication, TLS Web Client Authentication, Microsoft Server Gated Crypto, Netscape Server Gated Crypto, E-mail Protection
            X509v3 Authority Key Identifier: 
                keyid:50:9B:6F:74:01:E3:1A:03:57:AB:D9:D5:7D:15:64:4C:25:F3:F8:F4

            X509v3 Subject Alternative Name: 
                email:andrea.ceccanti@cnaf.infn.it
    Signature Algorithm: sha1WithRSAEncryption
         1c:a1:50:4d:9f:75:b7:82:a4:f6:5c:a6:29:36:16:91:d0:53:
         c1:58:39:35:8e:14:3d:3f:a7:d9:e8:58:de:f1:29:32:24:1a:
         c3:f2:3d:91:49:74:dc:e1:2a:53:9f:b3:36:b3:49:a8:bc:d9:
         f2:81:3e:2d:ef:fd:84:ad:8e:a1:19:fa:69:e1:61:3e:b3:b0:
         c5:be:81:70:65:0c:fc:84:d1:e2:39:2e:33:ea:45:90:11:78:
         7e:5e:fc:31:4b:e6:91:67:69:83:43:8f:10:52:3f:0c:45:3e:
         1d:56:38:fd:2b:3f:ad:cc:53:58:c6:37:20:31:1d:e6:9e:b9:
         49:e4:f6:79:2d:f0:21:a2:e4:24:ef:a1:a6:81:f9:44:82:40:
         a4:31:bd:96:f7:93:be:ed:92:75:9d:e7:3a:66:7c:94:20:6f:
         d6:90:6e:09:57:3c:a0:15:99:12:04:c0:8d:00:a9:44:d2:80:
         29:33:b7:e1:58:22:14:12:c5:b4:5b:89:cb:e7:87:98:d4:dd:
         1a:b5:af:b1:c9:e3:6b:ec:c2:60:7a:37:c7:45:3f:79:93:5c:
         3c:0d:e4:cc:0f:04:fa:db:99:40:da:ae:28:8b:d9:59:8e:2e:
         ad:aa:65:fd:ad:ce:b4:2e:37:f4:49:51:7b:ab:90:aa:c1:15:
         eb:5c:f4:c1
-----BEGIN CERTIFICATE-----
MIIDpzCCAo+gAwIBAgIBDjANBgkqhkiG9w0BAQUFADAtMQswCQYDVQQGEwJJVDEM
MAoGA1UECgwDSUdJMRAwDgYDVQQDDAdUZXN0IENBMB4XDTIyMTAwMTEzMjc1MVoX
DTMyMDkyODEzMjc1MVowNDELMAkGA1UEBhMCSVQxDDAKBgNVBAoMA0lHSTEXMBUG
A1UEAwwOdGhyZWUgICBzcGFjZXMwggEiMA0GCSqGSIb3DQEBAQUAA4IBDwAwggEK
AoIBAQCt1qNrpPKge70axAHXmGSZLViJP04sqBOOxJO2unD34fkX801/vqQp8394
UIAG9GnBiucaaqYI/hMOXNMAZpv4MlEC2i0jIkkRP0E2cswwNCsut0MRRgGY0X0V
64XtHifqlN7McYmQDYJXJeS7JEmu4a7xvYrtUuJx1QlPjV+Ckck7SRNvXsJzmV8t
uxfvrg0mXuUiWeur+4uMqIN8HP08IdGTcNGT5/x/sd1/wDaluwsDKJLVev+m+D1j
JdQJel4gflvLzX/A3dPBA/g0EC4Xg0EyjppWtN0JH/O7tnqTeoqlTBrTPH09tm23
elZp1brqwMLjo9HajvNHZlOelrJpAgMBAAGjgcowgccwDAYDVR0TAQH/BAIwADAd
BgNVHQ4EFgQUo0ZE0FUus2rsjXpKluOB7YPcjuowDgYDVR0PAQH/BAQDAgXgMD4G
A1UdJQQ3MDUGCCsGAQUFBwMBBggrBgEFBQcDAgYKKwYBBAGCNwoDAwYJYIZIAYb4
QgQBBggrBgEFBQcDBDAfBgNVHSMEGDAWgBRQm290AeMaA1er2dV9FWRMJfP49DAn
BgNVHREEIDAegRxhbmRyZWEuY2VjY2FudGlAY25hZi5pbmZuLml0MA0GCSqGSIb3
DQEBBQUAA4IBAQAcoVBNn3W3gqT2XKYpNhaR0FPBWDk1jhQ9P6fZ6Fje8SkyJBrD
8j2RSXTc4SpTn7M2s0movNnygT4t7/2ErY6hGfpp4WE+s7DFvoFwZQz8hNHiOS4z
6kWQEXh+XvwxS+aRZ2mDQ48QUj8MRT4dVjj9Kz+tzFNYxjcgMR3mnrlJ5PZ5LfAh
ouQk76GmgflEgkCkMb2W95O+7ZJ1nec6ZnyUIG/WkG4JVzygFZkSBMCNAKlE0oAp
M7fhWCIUEsW0W4nL54eY1N0ata+xyeNr7MJgejfHRT95k1w8DeTMDwT625lA2q4o
i9lZji6tqmX9rc60Ljf0SVF7q5CqwRXrXPTB
-----END CERTIFICATE-----
