Certificate:
    Data:
        Version: 3 (0x2)
        Serial Number: 6 (0x6)
    Signature Algorithm: sha1WithRSAEncryption
        Issuer: C=IT, O=IGI, CN=Test CA
        Validity
            Not Before: Sep 26 15:36:08 2012 GMT
            Not After : Sep 24 15:36:08 2022 GMT
        Subject: C=IT, O=IGI, CN=three   spaces
        Subject Public Key Info:
            Public Key Algorithm: rsaEncryption
                Public-Key: (2048 bit)
                Modulus:
                    00:89:02:28:81:c5:ad:32:c9:91:40:0b:1b:05:42:
                    fc:31:a6:14:ce:75:27:a3:10:e6:4b:37:ff:1e:3e:
                    34:19:45:11:bd:24:5a:78:af:89:cf:dd:8e:97:2e:
                    c8:e2:9f:0e:5a:0c:41:d1:a3:a6:16:97:2d:b4:dc:
                    61:15:d8:46:74:fe:47:51:35:f0:a9:f0:f5:a0:97:
                    87:7a:54:4d:b6:1e:1b:73:64:4f:43:1d:78:f0:d6:
                    91:3b:46:c3:6d:20:86:a4:77:c2:b6:59:c1:c9:36:
                    30:b6:19:ef:e6:2d:6c:7c:bb:82:f4:d1:55:2b:8b:
                    e5:58:17:10:26:03:82:29:bb:03:b2:2f:55:ec:1b:
                    cd:79:8b:76:bb:25:b6:d1:90:3f:10:07:c9:98:50:
                    ef:ab:10:4c:a4:bb:bb:b6:5f:5d:3b:4d:e1:41:69:
                    71:30:f9:18:38:db:40:d4:b3:bd:c3:31:44:64:6b:
                    20:23:e7:bb:df:1c:a0:4c:92:71:61:94:83:06:7b:
                    1b:d5:2b:0b:85:ea:13:cd:81:df:c0:ca:9d:94:85:
                    f5:5d:bf:d4:bb:35:f7:0b:10:59:09:c9:6b:61:2d:
                    af:16:bd:16:12:ff:b1:5d:01:23:99:8e:9d:ee:ae:
                    4b:09:9b:ad:e3:50:80:00:9f:02:20:43:da:5e:e2:
                    b6:85
                Exponent: 65537 (0x10001)
        X509v3 extensions:
            X509v3 Basic Constraints: critical
                CA:FALSE
            X509v3 Subject Key Identifier: 
                06:4D:53:41:60:18:64:F6:9A:4E:75:0D:05:C7:C0:98:6D:69:76:62
            X509v3 Key Usage: critical
                Digital Signature, Non Repudiation, Key Encipherment
            X509v3 Extended Key Usage: 
                TLS Web Server Authentication, TLS Web Client Authentication, Microsoft Server Gated Crypto, Netscape Server Gated Crypto, E-mail Protection
            X509v3 Authority Key Identifier: 
                keyid:91:77:36:7B:2E:B4:69:F3:27:EA:B7:F6:08:8B:4A:23:A2:11:49:C6

            X509v3 Subject Alternative Name: 
                email:andrea.ceccanti@cnaf.infn.it
    Signature Algorithm: sha1WithRSAEncryption
         12:26:47:d9:db:11:ed:a3:de:60:46:a9:48:cf:d2:9d:b1:74:
         f2:38:7f:37:f0:c4:82:4f:21:90:cc:2d:ea:5b:d1:1d:5a:8f:
         1d:46:c9:b6:22:53:bc:ca:d4:91:28:2c:df:98:e3:03:ca:3d:
         d9:55:2f:c0:07:8d:7c:6b:ee:cf:86:b9:9f:f3:3e:31:e0:34:
         41:25:bc:26:b7:72:13:e9:31:6b:48:a1:4e:aa:92:d6:7f:41:
         41:93:f5:fd:cc:ad:46:a4:f0:ae:d7:e7:6e:c1:43:19:de:fb:
         29:4e:81:9f:80:45:ad:86:1f:46:0c:09:dd:41:58:e9:68:7a:
         5a:3c:82:2a:f4:65:d6:67:0f:43:0a:1f:1d:57:84:66:a2:21:
         b0:da:f8:39:6c:2c:3e:9b:92:d8:69:aa:d0:0d:54:40:48:8c:
         44:3a:e7:ae:06:d6:17:3f:50:a3:5f:c6:c0:98:0b:e4:bc:0b:
         ab:72:20:79:cb:28:c7:fc:97:86:6b:be:6a:25:4b:7a:06:f8:
         61:e1:bc:8e:66:12:18:b7:81:1d:09:86:0d:f0:e8:ed:c7:61:
         75:49:7f:a1:2d:2e:e7:cc:45:08:4b:5a:4f:68:5a:e3:62:f9:
         1a:4f:57:bf:ee:d4:04:e8:17:aa:74:ae:1f:e2:72:b1:48:65:
         c7:34:9c:d6
-----BEGIN CERTIFICATE-----
MIIDpzCCAo+gAwIBAgIBBjANBgkqhkiG9w0BAQUFADAtMQswCQYDVQQGEwJJVDEM
MAoGA1UECgwDSUdJMRAwDgYDVQQDDAdUZXN0IENBMB4XDTEyMDkyNjE1MzYwOFoX
DTIyMDkyNDE1MzYwOFowNDELMAkGA1UEBhMCSVQxDDAKBgNVBAoTA0lHSTEXMBUG
A1UEAxMOdGhyZWUgICBzcGFjZXMwggEiMA0GCSqGSIb3DQEBAQUAA4IBDwAwggEK
AoIBAQCJAiiBxa0yyZFACxsFQvwxphTOdSejEOZLN/8ePjQZRRG9JFp4r4nP3Y6X
Lsjinw5aDEHRo6YWly203GEV2EZ0/kdRNfCp8PWgl4d6VE22HhtzZE9DHXjw1pE7
RsNtIIakd8K2WcHJNjC2Ge/mLWx8u4L00VUri+VYFxAmA4IpuwOyL1XsG815i3a7
JbbRkD8QB8mYUO+rEEyku7u2X107TeFBaXEw+Rg420DUs73DMURkayAj57vfHKBM
knFhlIMGexvVKwuF6hPNgd/Ayp2UhfVdv9S7NfcLEFkJyWthLa8WvRYS/7FdASOZ
jp3urksJm63jUIAAnwIgQ9pe4raFAgMBAAGjgcowgccwDAYDVR0TAQH/BAIwADAd
BgNVHQ4EFgQUBk1TQWAYZPaaTnUNBcfAmG1pdmIwDgYDVR0PAQH/BAQDAgXgMD4G
A1UdJQQ3MDUGCCsGAQUFBwMBBggrBgEFBQcDAgYKKwYBBAGCNwoDAwYJYIZIAYb4
QgQBBggrBgEFBQcDBDAfBgNVHSMEGDAWgBSRdzZ7LrRp8yfqt/YIi0ojohFJxjAn
BgNVHREEIDAegRxhbmRyZWEuY2VjY2FudGlAY25hZi5pbmZuLml0MA0GCSqGSIb3
DQEBBQUAA4IBAQASJkfZ2xHto95gRqlIz9KdsXTyOH838MSCTyGQzC3qW9EdWo8d
Rsm2IlO8ytSRKCzfmOMDyj3ZVS/AB418a+7Phrmf8z4x4DRBJbwmt3IT6TFrSKFO
qpLWf0FBk/X9zK1GpPCu1+duwUMZ3vspToGfgEWthh9GDAndQVjpaHpaPIIq9GXW
Zw9DCh8dV4RmoiGw2vg5bCw+m5LYaarQDVRASIxEOueuBtYXP1CjX8bAmAvkvAur
ciB5yyjH/JeGa75qJUt6Bvhh4byOZhIYt4EdCYYN8Ojtx2F1SX+hLS7nzEUIS1pP
aFrjYvkaT1e/7tQE6BeqdK4f4nKxSGXHNJzW
-----END CERTIFICATE-----
