Certificate:
    Data:
        Version: 3 (0x2)
        Serial Number: 15 (0xf)
    Signature Algorithm: sha1WithRSAEncryption
        Issuer: C=IT, O=IGI, CN=Test CA
        Validity
            Not Before: Sep 27 07:55:12 2012 GMT
            Not After : Sep 25 07:55:12 2022 GMT
        Subject: C=IT, O=IGI, CN=VO Admin
        Subject Public Key Info:
            Public Key Algorithm: rsaEncryption
                Public-Key: (2048 bit)
                Modulus:
                    00:e6:a5:dd:d2:1f:c3:48:36:65:37:e2:e2:92:ca:
                    ed:33:13:dd:eb:ac:e5:36:d2:1c:22:20:29:2f:f4:
                    c1:26:a3:dd:1c:66:a5:1e:f9:65:ad:5d:c4:34:64:
                    f7:e3:ad:1e:f0:f5:fd:5f:ab:0b:47:f2:6c:ca:b0:
                    fb:7c:23:4d:8f:9b:a1:97:1c:91:6e:7f:1e:f3:8b:
                    91:bf:25:cc:96:bc:17:d9:00:41:60:36:aa:9d:4c:
                    20:6d:0c:d5:0e:98:fd:d0:e1:56:8f:af:c0:f0:a8:
                    61:7b:fe:59:be:a3:0b:53:95:0b:6d:ce:c8:af:ff:
                    7f:e3:4e:a2:93:23:7e:c4:7a:f1:ee:61:a5:1c:72:
                    72:40:0f:94:7d:55:51:b1:21:80:ba:0c:0a:44:d5:
                    ca:8e:3d:fb:05:1c:1f:b3:4f:9e:d2:ff:65:71:45:
                    9c:cb:fc:21:ba:90:c7:b2:e2:7c:82:75:69:3a:d3:
                    94:0e:08:98:b1:1f:0c:e2:6c:9d:16:c9:99:0e:9c:
                    9d:38:fe:a9:a7:35:48:5c:e8:fb:40:4e:cb:cb:fd:
                    e1:48:dc:9b:5d:62:06:63:17:07:8c:b4:28:1b:98:
                    f3:36:57:f7:ef:3a:8e:df:d0:b5:26:7b:a5:aa:95:
                    c0:8d:aa:99:f0:97:46:37:f3:e6:e5:51:b0:89:5f:
                    ec:ad
                Exponent: 65537 (0x10001)
        X509v3 extensions:
            X509v3 Basic Constraints: critical
                CA:FALSE
            X509v3 Subject Key Identifier: 
                FA:92:09:7E:E1:08:0F:DE:05:CB:11:4E:45:17:06:C5:96:35:52:57
            X509v3 Key Usage: critical
                Digital Signature, Non Repudiation, Key Encipherment
            X509v3 Extended Key Usage: 
                TLS Web Server Authentication, TLS Web Client Authentication, Microsoft Server Gated Crypto, Netscape Server Gated Crypto, E-mail Protection
            X509v3 Authority Key Identifier: 
                keyid:91:77:36:7B:2E:B4:69:F3:27:EA:B7:F6:08:8B:4A:23:A2:11:49:C6

            X509v3 Subject Alternative Name: 
                email:andrea.ceccanti@cnaf.infn.it
    Signature Algorithm: sha1WithRSAEncryption
         be:b0:71:71:0d:82:3d:a6:e4:bb:8b:6e:5f:8b:64:60:c7:20:
         2a:0b:49:38:94:64:c9:a3:11:51:e0:af:67:15:ab:ac:90:99:
         d1:e5:1e:7e:39:d7:ff:99:58:77:34:f5:eb:a1:3a:f8:8e:5b:
         08:6c:42:5e:d4:23:53:cf:7a:76:9c:38:8e:c6:86:1c:71:df:
         f5:d7:f4:84:9b:9d:f5:6e:a1:6c:92:8f:0b:78:84:dd:b6:eb:
         e4:5f:7c:1d:2c:d6:39:48:8e:36:7e:d1:89:d1:f5:55:bb:68:
         b0:f9:64:28:a2:ed:a9:5c:da:2b:00:00:e9:ce:db:f7:35:61:
         2b:8a:92:51:9e:8d:d6:24:5d:58:af:c5:5c:f5:f6:87:84:89:
         4d:85:d5:93:9a:a8:b2:89:e8:33:f7:33:cd:e6:92:5d:2c:cc:
         c0:0b:e3:35:27:73:a8:c9:b3:e1:a3:bc:51:81:15:b9:6c:6d:
         be:76:bc:a2:8e:6b:24:5a:b8:8d:c7:5d:d9:20:23:a2:e5:ea:
         43:e5:5c:6c:4a:1f:64:5d:b0:3f:8e:d5:e3:9c:6d:23:8a:bb:
         53:6f:6d:5f:f2:b6:a4:50:b8:89:40:f8:b6:fa:85:fb:a7:ed:
         eb:c6:3f:8c:d4:0b:23:95:47:c4:9a:6a:bf:0d:5e:5f:8a:60:
         32:d9:e4:70
-----BEGIN CERTIFICATE-----
MIIDoTCCAomgAwIBAgIBDzANBgkqhkiG9w0BAQUFADAtMQswCQYDVQQGEwJJVDEM
MAoGA1UECgwDSUdJMRAwDgYDVQQDDAdUZXN0IENBMB4XDTEyMDkyNzA3NTUxMloX
DTIyMDkyNTA3NTUxMlowLjELMAkGA1UEBhMCSVQxDDAKBgNVBAoTA0lHSTERMA8G
A1UEAxMIVk8gQWRtaW4wggEiMA0GCSqGSIb3DQEBAQUAA4IBDwAwggEKAoIBAQDm
pd3SH8NINmU34uKSyu0zE93rrOU20hwiICkv9MEmo90cZqUe+WWtXcQ0ZPfjrR7w
9f1fqwtH8mzKsPt8I02Pm6GXHJFufx7zi5G/JcyWvBfZAEFgNqqdTCBtDNUOmP3Q
4VaPr8DwqGF7/lm+owtTlQttzsiv/3/jTqKTI37EevHuYaUccnJAD5R9VVGxIYC6
DApE1cqOPfsFHB+zT57S/2VxRZzL/CG6kMey4nyCdWk605QOCJixHwzibJ0WyZkO
nJ04/qmnNUhc6PtATsvL/eFI3JtdYgZjFweMtCgbmPM2V/fvOo7f0LUme6WqlcCN
qpnwl0Y38+blUbCJX+ytAgMBAAGjgcowgccwDAYDVR0TAQH/BAIwADAdBgNVHQ4E
FgQU+pIJfuEID94FyxFORRcGxZY1UlcwDgYDVR0PAQH/BAQDAgXgMD4GA1UdJQQ3
MDUGCCsGAQUFBwMBBggrBgEFBQcDAgYKKwYBBAGCNwoDAwYJYIZIAYb4QgQBBggr
BgEFBQcDBDAfBgNVHSMEGDAWgBSRdzZ7LrRp8yfqt/YIi0ojohFJxjAnBgNVHREE
IDAegRxhbmRyZWEuY2VjY2FudGlAY25hZi5pbmZuLml0MA0GCSqGSIb3DQEBBQUA
A4IBAQC+sHFxDYI9puS7i25fi2RgxyAqC0k4lGTJoxFR4K9nFauskJnR5R5+Odf/
mVh3NPXroTr4jlsIbEJe1CNTz3p2nDiOxoYccd/11/SEm531bqFsko8LeITdtuvk
X3wdLNY5SI42ftGJ0fVVu2iw+WQoou2pXNorAADpztv3NWEripJRno3WJF1Yr8Vc
9faHhIlNhdWTmqiyiegz9zPN5pJdLMzAC+M1J3OoybPho7xRgRW5bG2+dryijmsk
WriNx13ZICOi5epD5VxsSh9kXbA/jtXjnG0jirtTb21f8rakULiJQPi2+oX7p+3r
xj+M1AsjlUfEmmq/DV5fimAy2eRw
-----END CERTIFICATE-----
