Certificate:
    Data:
        Version: 3 (0x2)
        Serial Number: 15 (0xf)
    Signature Algorithm: sha1WithRSAEncryption
        Issuer: C=IT, O=IGI, CN=Test CA
        Validity
            Not Before: Oct  1 13:31:40 2022 GMT
            Not After : Sep 28 13:31:40 2032 GMT
        Subject: C=IT, O=IGI, CN=VO Admin
        Subject Public Key Info:
            Public Key Algorithm: rsaEncryption
                Public-Key: (2048 bit)
                Modulus:
                    00:ad:18:79:53:ba:d1:13:65:d6:10:34:ca:e7:7c:
                    ae:9c:30:b9:a0:ea:79:40:28:d6:c3:2e:81:ce:75:
                    94:fb:91:75:13:b9:b6:81:c6:55:8c:46:09:cc:e6:
                    eb:19:6b:9d:22:da:e6:af:30:55:ab:bc:f6:67:3c:
                    bc:60:14:5f:03:43:e7:2c:37:b4:fb:dc:6b:4a:90:
                    d4:ea:b3:b8:13:f8:a2:c2:fb:20:02:88:97:6e:53:
                    45:f0:90:d6:10:b9:a8:b4:1d:7b:3a:79:aa:9f:c4:
                    ab:fc:b6:b2:10:10:04:1c:10:4b:5f:79:23:ff:f3:
                    8b:e6:37:14:bc:4f:de:80:bf:6c:e0:36:ba:a5:d8:
                    eb:fc:93:ff:dd:39:74:e4:17:40:d5:11:54:b0:56:
                    6e:ea:d0:ec:c4:e1:14:a8:d6:40:1d:96:47:88:fa:
                    7c:c6:3a:f3:7f:63:f0:8c:ce:00:39:d7:f0:24:e9:
                    20:a7:75:60:c5:ef:d6:9d:83:4b:ae:b0:39:d1:e8:
                    fa:b1:37:09:ba:de:f7:e5:fe:db:95:b2:92:bc:85:
                    9c:49:68:48:d4:6c:64:9c:f3:c1:a3:66:3c:82:16:
                    70:4b:13:7b:d0:2e:c5:9d:5e:48:60:0b:db:f0:b0:
                    81:1f:85:aa:ef:5e:48:b3:e6:8d:27:cb:f3:f3:be:
                    10:05
                Exponent: 65537 (0x10001)
        X509v3 extensions:
            X509v3 Basic Constraints: critical
                CA:FALSE
            X509v3 Subject Key Identifier: 
                FD:F5:59:3E:9F:87:E0:B0:35:BA:4B:C6:60:34:B6:23:D5:D8:D2:93
            X509v3 Key Usage: critical
                Digital Signature, Non Repudiation, Key Encipherment
            X509v3 Extended Key Usage: 
                TLS Web Server Authentication, TLS Web Client Authentication, Microsoft Server Gated Crypto, Netscape Server Gated Crypto, E-mail Protection
            X509v3 Authority Key Identifier: 
                keyid:50:9B:6F:74:01:E3:1A:03:57:AB:D9:D5:7D:15:64:4C:25:F3:F8:F4

            X509v3 Subject Alternative Name: 
                email:andrea.ceccanti@cnaf.infn.it
    Signature Algorithm: sha1WithRSAEncryption
         7f:1e:96:d3:8f:87:73:4a:cd:7d:89:8f:3f:43:b6:9e:f6:04:
         02:5e:50:fc:95:66:89:5a:7e:0a:65:ab:f3:fe:6e:f4:06:2d:
         33:28:5d:66:43:cf:93:93:46:58:3b:ba:ca:ee:70:46:09:95:
         20:89:1f:c7:ce:1e:42:e0:eb:df:a7:ed:11:bb:0c:00:93:fc:
         05:6b:61:71:7d:e0:d2:95:0d:0d:bf:92:11:92:ec:8d:58:60:
         de:4c:9c:6f:ac:fb:de:b5:21:10:7d:c9:6e:70:f6:e1:99:cb:
         7b:42:69:88:2c:12:aa:db:c1:e8:48:b1:6a:59:fd:34:cc:e5:
         da:6c:e8:b6:0e:a8:45:6a:aa:94:e5:ac:a1:e7:92:d5:9b:71:
         14:1f:a9:4c:c3:bf:ce:22:84:6d:22:1d:65:db:58:04:5b:dd:
         15:f8:d9:05:21:cf:70:91:c5:e3:3c:c7:b8:60:69:62:ec:d9:
         44:b1:7b:02:aa:d6:a0:36:93:ea:04:bf:5c:ad:85:e4:58:7a:
         f0:e8:71:ea:61:ed:be:93:30:29:bf:62:ca:f2:25:9d:3f:ca:
         f3:35:14:68:e9:5f:52:c5:e9:ed:16:e9:44:5d:92:4a:55:04:
         2c:65:74:08:2c:64:33:75:c8:44:23:12:60:50:8f:4d:45:c3:
         cf:b5:6d:70
-----BEGIN CERTIFICATE-----
MIIDoTCCAomgAwIBAgIBDzANBgkqhkiG9w0BAQUFADAtMQswCQYDVQQGEwJJVDEM
MAoGA1UECgwDSUdJMRAwDgYDVQQDDAdUZXN0IENBMB4XDTIyMTAwMTEzMzE0MFoX
DTMyMDkyODEzMzE0MFowLjELMAkGA1UEBhMCSVQxDDAKBgNVBAoMA0lHSTERMA8G
A1UEAwwIVk8gQWRtaW4wggEiMA0GCSqGSIb3DQEBAQUAA4IBDwAwggEKAoIBAQCt
GHlTutETZdYQNMrnfK6cMLmg6nlAKNbDLoHOdZT7kXUTubaBxlWMRgnM5usZa50i
2uavMFWrvPZnPLxgFF8DQ+csN7T73GtKkNTqs7gT+KLC+yACiJduU0XwkNYQuai0
HXs6eaqfxKv8trIQEAQcEEtfeSP/84vmNxS8T96Av2zgNrql2Ov8k//dOXTkF0DV
EVSwVm7q0OzE4RSo1kAdlkeI+nzGOvN/Y/CMzgA51/Ak6SCndWDF79adg0uusDnR
6PqxNwm63vfl/tuVspK8hZxJaEjUbGSc88GjZjyCFnBLE3vQLsWdXkhgC9vwsIEf
harvXkiz5o0ny/PzvhAFAgMBAAGjgcowgccwDAYDVR0TAQH/BAIwADAdBgNVHQ4E
FgQU/fVZPp+H4LA1ukvGYDS2I9XY0pMwDgYDVR0PAQH/BAQDAgXgMD4GA1UdJQQ3
MDUGCCsGAQUFBwMBBggrBgEFBQcDAgYKKwYBBAGCNwoDAwYJYIZIAYb4QgQBBggr
BgEFBQcDBDAfBgNVHSMEGDAWgBRQm290AeMaA1er2dV9FWRMJfP49DAnBgNVHREE
IDAegRxhbmRyZWEuY2VjY2FudGlAY25hZi5pbmZuLml0MA0GCSqGSIb3DQEBBQUA
A4IBAQB/HpbTj4dzSs19iY8/Q7ae9gQCXlD8lWaJWn4KZavz/m70Bi0zKF1mQ8+T
k0ZYO7rK7nBGCZUgiR/Hzh5C4Ovfp+0RuwwAk/wFa2FxfeDSlQ0Nv5IRkuyNWGDe
TJxvrPvetSEQfclucPbhmct7QmmILBKq28HoSLFqWf00zOXabOi2DqhFaqqU5ayh
55LVm3EUH6lMw7/OIoRtIh1l21gEW90V+NkFIc9wkcXjPMe4YGli7NlEsXsCqtag
NpPqBL9crYXkWHrw6HHqYe2+kzApv2LK8iWdP8rzNRRo6V9SxentFulEXZJKVQQs
ZXQILGQzdchEIxJgUI9NRcPPtW1w
-----END CERTIFICATE-----
